
app.elf:     file format elf32-littleriscv
app.elf
architecture: riscv:rv32, flags 0x00000112:
EXEC_P, HAS_SYMS, D_PAGED
start address 0x00000bac

Program Header:
0x70000003 off    0x0001929e vaddr 0x00000000 paddr 0x00000000 align 2**0
         filesz 0x00000020 memsz 0x00000000 flags r--
    LOAD off    0x00001000 vaddr 0x00000000 paddr 0x00000000 align 2**12
         filesz 0x00000020 memsz 0x00000020 flags r-x
    LOAD off    0x00001020 vaddr 0x00000020 paddr 0x00000020 align 2**12
         filesz 0x00016990 memsz 0x00016990 flags r-x
    LOAD off    0x000179b0 vaddr 0x000169b0 paddr 0x0001828c align 2**12
         filesz 0x000018dc memsz 0x000018dc flags rw-
    LOAD off    0x00000b68 vaddr 0x00019b68 paddr 0x00019b68 align 2**12
         filesz 0x00000000 memsz 0x000003e0 flags rw-

Sections:
Idx Name          Size      VMA       LMA       File off  Algn
  0 .entry        00000020  00000000  00000000  00001000  2**5
                  CONTENTS, ALLOC, LOAD, READONLY, CODE
  1 .exceptions   000002f4  00000020  00000020  00001020  2**2
                  CONTENTS, ALLOC, LOAD, READONLY, CODE
  2 .text         00015b5c  00000314  00000314  00001314  2**2
                  CONTENTS, ALLOC, LOAD, READONLY, CODE
  3 .rodata       00000b40  00015e70  00015e70  00016e70  2**4
                  CONTENTS, ALLOC, LOAD, READONLY, DATA
  4 .rwdata       000018dc  000169b0  0001828c  000179b0  2**3
                  CONTENTS, ALLOC, LOAD, DATA
  5 .bss          000003e0  00019b68  00019b68  00019b68  2**3
                  ALLOC
  6 .SDRAM        00000000  00019f48  00019f48  0001928c  2**0
                  CONTENTS
  7 .comment      00000012  00000000  00000000  0001928c  2**0
                  CONTENTS, READONLY
  8 .riscv.attributes 00000020  00000000  00000000  0001929e  2**0
                  CONTENTS, READONLY
  9 .debug_aranges 00000830  00000000  00000000  000192c0  2**3
                  CONTENTS, READONLY, DEBUGGING, OCTETS
 10 .debug_info   0000eac9  00000000  00000000  00019af0  2**0
                  CONTENTS, READONLY, DEBUGGING, OCTETS
 11 .debug_abbrev 00004d9d  00000000  00000000  000285b9  2**0
                  CONTENTS, READONLY, DEBUGGING, OCTETS
 12 .debug_line   000142c9  00000000  00000000  0002d356  2**0
                  CONTENTS, READONLY, DEBUGGING, OCTETS
 13 .debug_frame  00001318  00000000  00000000  00041620  2**2
                  CONTENTS, READONLY, DEBUGGING, OCTETS
 14 .debug_str    00001d46  00000000  00000000  00042938  2**0
                  CONTENTS, READONLY, DEBUGGING, OCTETS
 15 .debug_line_str 00001873  00000000  00000000  0004467e  2**0
                  CONTENTS, READONLY, DEBUGGING, OCTETS
 16 .debug_ranges 00000020  00000000  00000000  00045ef8  2**3
                  CONTENTS, READONLY, DEBUGGING, OCTETS
 17 .debug_rnglists 00001662  00000000  00000000  00045f18  2**0
                  CONTENTS, READONLY, DEBUGGING, OCTETS
 18 .debug_loclists 000098da  00000000  00000000  0004757a  2**0
                  CONTENTS, READONLY, DEBUGGING, OCTETS
SYMBOL TABLE:
00000000 l    d  .entry	00000000 .entry
00000020 l    d  .exceptions	00000000 .exceptions
00000314 l    d  .text	00000000 .text
00015e70 l    d  .rodata	00000000 .rodata
000169b0 l    d  .rwdata	00000000 .rwdata
00019b68 l    d  .bss	00000000 .bss
00019f48 l    d  .SDRAM	00000000 .SDRAM
00000000 l    d  .comment	00000000 .comment
00000000 l    d  .riscv.attributes	00000000 .riscv.attributes
00000000 l    d  .debug_aranges	00000000 .debug_aranges
00000000 l    d  .debug_info	00000000 .debug_info
00000000 l    d  .debug_abbrev	00000000 .debug_abbrev
00000000 l    d  .debug_line	00000000 .debug_line
00000000 l    d  .debug_frame	00000000 .debug_frame
00000000 l    d  .debug_str	00000000 .debug_str
00000000 l    d  .debug_line_str	00000000 .debug_line_str
00000000 l    d  .debug_ranges	00000000 .debug_ranges
00000000 l    d  .debug_rnglists	00000000 .debug_rnglists
00000000 l    d  .debug_loclists	00000000 .debug_loclists
00000000 l    df *ABS*	00000000 crt0.S.obj
00000c54 l       .text	00000000 alt_after_alt_main
00000000 l    df *ABS*	00000000 machine_trap.S.obj
00000020 l       .exceptions	00000000 save_registers
00000000 l    df *ABS*	00000000 alt_irq_handler.c
00000000 l    df *ABS*	00000000 main.c
00000000 l    df *ABS*	00000000 alt_load.c
00000c58 l     F .text	00000064 alt_load_section
00000000 l    df *ABS*	00000000 alt_main.c
00000000 l    df *ABS*	00000000 alt_sys_init.c
000169b0 l     O .rwdata	00001060 DEBUG
00000000 l    df *ABS*	00000000 altera_avalon_jtag_uart_fd.c
00000000 l    df *ABS*	00000000 altera_avalon_jtag_uart_init.c
000010b0 l     F .text	00000238 altera_avalon_jtag_uart_irq
000012e8 l     F .text	000000bc altera_avalon_jtag_uart_timeout
00000000 l    df *ABS*	00000000 altera_avalon_jtag_uart_ioctl.c
00000000 l    df *ABS*	00000000 altera_avalon_jtag_uart_read.c
00000000 l    df *ABS*	00000000 altera_avalon_jtag_uart_write.c
00000000 l    df *ABS*	00000000 alt_alarm_start.c
00000000 l    df *ABS*	00000000 alt_dcache_flush_all.c
00000000 l    df *ABS*	00000000 alt_dev.c
00001afc l     F .text	0000002c alt_dev_null_write
00000000 l    df *ABS*	00000000 alt_dev_llist_insert.c
00001b64 l     F .text	00000044 alt_get_errno
00000000 l    df *ABS*	00000000 alt_do_ctors.c
00000000 l    df *ABS*	00000000 alt_do_dtors.c
00000000 l    df *ABS*	00000000 alt_errno.c
00000000 l    df *ABS*	00000000 alt_icache_flush_all.c
00000000 l    df *ABS*	00000000 alt_iic.c
00000000 l    df *ABS*	00000000 alt_iic_isr_register.c
00000000 l    df *ABS*	00000000 alt_io_redirect.c
00001efc l     F .text	000000dc alt_open_fd
00000000 l    df *ABS*	00000000 alt_release_fd.c
00000000 l    df *ABS*	00000000 alt_tick.c
00000000 l    df *ABS*	00000000 intel_niosv_irq.c
00000000 l    df *ABS*	00000000 mtimer.c
00000000 l    df *ABS*	00000000 libc_a-exit.o
00000000 l    df *ABS*	00000000 libc_a-sysopen.o
00000000 l    df *ABS*	00000000 libc_a-reent.o
00000000 l    df *ABS*	00000000 libc_a-findfp.o
00002824 l     F .text	0000001c stdio_exit_handler
00002840 l     F .text	00000070 cleanup_stdio
000028b0 l     F .text	00000040 __fp_lock
000028f0 l     F .text	00000040 __fp_unlock
00002930 l     F .text	00000190 global_stdio_init.part.0
00000000 l    df *ABS*	00000000 libc_a-setvbuf.o
00000000 l    df *ABS*	00000000 libc_a-openr.o
00000000 l    df *ABS*	00000000 libc_a-fwalk.o
00000000 l    df *ABS*	00000000 libc_a-stdio.o
00000000 l    df *ABS*	00000000 libc_a-stack_protector.o
00000000 l    df *ABS*	00000000 libc_a-malloc.o
00000000 l    df *ABS*	00000000 libc_a-mallocr.o
00000000 l    df *ABS*	00000000 libc_a-__call_atexit.o
00003c2c l     F .text	00000018 register_fini
00000000 l    df *ABS*	00000000 libc_a-sbrkr.o
00000000 l    df *ABS*	00000000 libc_a-writer.o
00000000 l    df *ABS*	00000000 libc_a-makebuf.o
00000000 l    df *ABS*	00000000 libc_a-mlock.o
00000000 l    df *ABS*	00000000 libc_a-atexit.o
00000000 l    df *ABS*	00000000 libc_a-fini.o
00000000 l    df *ABS*	00000000 libc_a-lock.o
00000000 l    df *ABS*	00000000 libc_a-sysclose.o
00000000 l    df *ABS*	00000000 libc_a-fclose.o
00000000 l    df *ABS*	00000000 libc_a-memset.o
00000000 l    df *ABS*	00000000 libc_a-memcpy.o
00000000 l    df *ABS*	00000000 libc_a-printf.o
00000000 l    df *ABS*	00000000 libc_a-strlen.o
00000000 l    df *ABS*	00000000 libc_a-puts.o
00000000 l    df *ABS*	00000000 libc_a-freer.o
00000000 l    df *ABS*	00000000 libc_a-fflush.o
00000000 l    df *ABS*	00000000 libc_a-closer.o
00000000 l    df *ABS*	00000000 libc_a-fstatr.o
00000000 l    df *ABS*	00000000 libc_a-signal.o
00000000 l    df *ABS*	00000000 libc_a-isattyr.o
00000000 l    df *ABS*	00000000 libc_a-lseekr.o
00000000 l    df *ABS*	00000000 libc_a-readr.o
00000000 l    df *ABS*	00000000 libc_a-fvwrite.o
00000000 l    df *ABS*	00000000 libc_a-vfprintf.o
0000849c l     F .text	000000f8 __sbprintf
000163c0 l     O .rodata	00000010 blanks.1
000163d0 l     O .rodata	00000010 zeroes.0
00000000 l    df *ABS*	00000000 libc_a-syswrite.o
00000000 l    df *ABS*	00000000 libc_a-__atexit.o
00000000 l    df *ABS*	00000000 libc_a-signalr.o
00000000 l    df *ABS*	00000000 libc_a-wsetup.o
00000000 l    df *ABS*	00000000 libc_a-memchr.o
00000000 l    df *ABS*	00000000 libc_a-localeconv.o
00000000 l    df *ABS*	00000000 libc_a-sprint_r.o
00000000 l    df *ABS*	00000000 libc_a-memmove-stub.o
00000000 l    df *ABS*	00000000 libm_a-frexpl.o
00000000 l    df *ABS*	00000000 libc_a-reallocr.o
00000000 l    df *ABS*	00000000 libc_a-gdtoa-ldtoa.o
00000000 l    df *ABS*	00000000 libc_a-gdtoa-gdtoa.o
00000000 l    df *ABS*	00000000 libc_a-gdtoa-dmisc.o
0000b1e4 l     F .text	00000024 __rv_alloc_D2A.part.0
00000000 l    df *ABS*	00000000 libc_a-strncpy.o
00000000 l    df *ABS*	00000000 libc_a-gdtoa-gmisc.o
00000000 l    df *ABS*	00000000 libc_a-assert.o
00000000 l    df *ABS*	00000000 libc_a-mprec.o
00016458 l     O .rodata	0000000c p05.0
00000000 l    df *ABS*	00000000 libc_a-callocr.o
00000000 l    df *ABS*	00000000 libc_a-locale.o
00000000 l    df *ABS*	00000000 libc_a-strcmp.o
00000000 l    df *ABS*	00000000 libc_a-fiprintf.o
00000000 l    df *ABS*	00000000 libc_a-wctomb_r.o
00000000 l    df *ABS*	00000000 libc_a-vfiprintf.o
0000e254 l     F .text	000000f8 __sbprintf
000166ec l     O .rodata	00000010 blanks.1
000166fc l     O .rodata	00000010 zeroes.0
00000000 l    df *ABS*	00000000 libc_a-abort.o
00000000 l    df *ABS*	00000000 libc_a-mbtowc_r.o
00000000 l    df *ABS*	00000000 libc_a-errno.o
00000000 l    df *ABS*	00000000 libgcc2.c
00000000 l    df *ABS*	00000000 libgcc2.c
00000000 l    df *ABS*	00000000 adddf3.c
00000000 l    df *ABS*	00000000 divdf3.c
00000000 l    df *ABS*	00000000 eqdf2.c
00000000 l    df *ABS*	00000000 gedf2.c
00000000 l    df *ABS*	00000000 ledf2.c
00000000 l    df *ABS*	00000000 muldf3.c
00000000 l    df *ABS*	00000000 subdf3.c
00000000 l    df *ABS*	00000000 fixdfsi.c
00000000 l    df *ABS*	00000000 floatsidf.c
00000000 l    df *ABS*	00000000 eqtf2.c
00000000 l    df *ABS*	00000000 getf2.c
00000000 l    df *ABS*	00000000 letf2.c
00000000 l    df *ABS*	00000000 multf3.c
00000000 l    df *ABS*	00000000 subtf3.c
00000000 l    df *ABS*	00000000 unordtf2.c
00000000 l    df *ABS*	00000000 fixtfsi.c
00000000 l    df *ABS*	00000000 floatsitf.c
00000000 l    df *ABS*	00000000 extenddftf2.c
00000000 l    df *ABS*	00000000 muldi3.o
00000000 l    df *ABS*	00000000 div.o
00000000 l    df *ABS*	00000000 libgcc2.c
00000000 l    df *ABS*	00000000 libgcc2.c
00000000 l    df *ABS*	00000000 alt_close.c
00014d80 l     F .text	00000044 alt_get_errno
00000000 l    df *ABS*	00000000 alt_exit.c
00000000 l    df *ABS*	00000000 alt_fstat.c
00014ee4 l     F .text	00000044 alt_get_errno
00000000 l    df *ABS*	00000000 alt_getpid.c
00000000 l    df *ABS*	00000000 alt_isatty.c
00015008 l     F .text	00000044 alt_get_errno
00000000 l    df *ABS*	00000000 alt_kill.c
00015148 l     F .text	00000044 alt_get_errno
00000000 l    df *ABS*	00000000 alt_lseek.c
00015280 l     F .text	00000044 alt_get_errno
00000000 l    df *ABS*	00000000 alt_open.c
000153a4 l     F .text	00000044 alt_get_errno
000153e8 l     F .text	000000e8 alt_file_locked
00000000 l    df *ABS*	00000000 alt_read.c
00015638 l     F .text	00000044 alt_get_errno
00000000 l    df *ABS*	00000000 alt_sbrk.c
00018288 l     O .rwdata	00000004 heap_end
00000000 l    df *ABS*	00000000 alt_write.c
00015838 l     F .text	00000044 alt_get_errno
00000000 l    df *ABS*	00000000 alt_find_dev.c
00000000 l    df *ABS*	00000000 alt_find_file.c
00000000 l    df *ABS*	00000000 alt_get_fd.c
00000000 l    df *ABS*	00000000 libc_a-sysfstat.o
0000b208 g     F .text	0000006c __rv_alloc_D2A
000032bc g     F .text	0000000c .hidden __stack_chk_fail_local
0000c994 g     F .text	000000a4 _mprec_log10
0000caa0 g     F .text	00000064 __any_on
000054c4 g     F .text	00000058 _isatty_r
00016530 g     O .rodata	00000028 __mprec_tinytens
00000d30 g     F .text	00000088 alt_main
00014fe8 g     F .text	00000020 _getpid
00004548 g     F .text	00000134 _puts_r
00019bd8 g     O .bss	00000080 alt_irq
0000551c g     F .text	00000064 _lseek_r
000007f4 g     F .text	00000138 decrypt
0001828c g       *ABS*	00000000 __flash_rwdata_start
0001172c g     F .text	00000160 .hidden __getf2
000101f4 g     F .text	0000008c .hidden __eqdf2
00019f48 g       *ABS*	00000000 __alt_heap_start
00008694 g     F .text	00000060 _kill_r
0001165c g     F .text	000000d0 .hidden __eqtf2
00004470 g     F .text	0000004c printf
00018a58 g       *ABS*	00000000 __global_pointer$
00019bcc g     O .bss	00000001 __lock___atexit_recursive_mutex
00004fe0 g     F .text	0000009c _signal_r
000031a4 g     F .text	00000078 __sseek
00002c18 g     F .text	00000070 __sinit
0000ccc0 g     F .text	0000007c _setlocale_r
000169b0 g       *ABS*	00000000 __tls_base
00003f7c g     F .text	0000000c __malloc_unlock
00014840 g     F .text	00000198 .hidden __floatsitf
00019bb4 g     O .bss	00000001 __lock___arc4random_mutex
00008968 g     F .text	0000010c memmove
000000c0 g     F .exceptions	00000028 is_ecc_handler_present
0000b810 g     F .text	000000b4 _Balloc
00019ba0 g     O .bss	00000004 __stack_chk_guard
00010280 g     F .text	00000100 .hidden __gtdf2
00018284 g     O .rwdata	00000004 __atexit_recursive_mutex
0000e3d8 g     F .text	00000008 __errno
00004000 g     F .text	00000004 __retarget_lock_close
00000000 g     F .entry	00000004 __reset
000088fc g     F .text	00000008 __localeconv_l
00019b9c g     O .bss	00000004 __stdio_exit_handler
00000020 g       *ABS*	00000000 __flash_exceptions_start
00004f24 g     F .text	00000060 _fstat_r
00019b98 g     O .bss	00000004 errno
00003114 g     F .text	00000008 __seofread
00019b74 g     O .bss	00000004 alt_argv
00017a38 g     O .rwdata	00000180 alt_fd_list
00015980 g     F .text	00000120 alt_find_dev
0000428c g     F .text	000001a4 memcpy
00002d08 g     F .text	00000298 setvbuf
00015e98 g     O .rodata	00000020 P8
000115a4 g     F .text	000000b8 .hidden __floatsidf
000025a0 g     F .text	000000ac alt_niosv_timer_sc_isr
00001fd8 g     F .text	000000fc alt_io_redirect
00010380 g     F .text	00000108 .hidden __ltdf2
0000467c g     F .text	0000000c puts
00015cb4 g       *ABS*	00000000 __fini_array_end
00014c4c g     F .text	00000048 .hidden __hidden___udivsi3
0000c8ec g     F .text	000000a8 __ratio
00001510 g     F .text	0000022c altera_avalon_jtag_uart_read
000032e4 g     F .text	0000000c malloc
00004430 g     F .text	00000040 _printf_r
0001188c g     F .text	00000160 .hidden __letf2
00014c4c g     F .text	00000048 .hidden __udivsi3
0000507c g     F .text	000000c4 _raise_r
00014f28 g     F .text	000000c0 _fstat
00015e70 g     O .rodata	00000028 P10
0000b7a8 g     F .text	00000054 __assert_func
00016468 g     O .rodata	000000c8 __mprec_tens
000001fc g     F .exceptions	00000118 handle_trap
00019bac g     O .bss	00000004 __malloc_top_pad
000086f4 g     F .text	00000004 _getpid_r
00019b7c g     O .bss	00000004 __dso_handle
00008904 g     F .text	0000000c _localeconv_r
0000bd00 g     F .text	000000b0 __i2b
000055e4 g     F .text	00000514 __sfvwrite_r
00005140 g     F .text	000000e0 __sigtramp_r
00003c44 g     F .text	00000058 _sbrk_r
000005ec g     F .text	000000d0 round_function
00005580 g     F .text	00000064 _read_r
00018268 g     O .rwdata	00000004 alt_max_fd
00004034 g     F .text	00000170 _fclose_r
00004dfc g     F .text	000000d0 fflush
00019ba8 g     O .bss	00000004 __malloc_max_sbrked_mem
000003b0 g     F .text	00000088 left_circular_shift
0000f084 g     F .text	000008c8 .hidden __adddf3
000032c8 g     F .text	0000001c __stack_chk_init
0000c678 g     F .text	0000011c __b2d
00019bc0 g     O .bss	00000001 __lock___env_recursive_mutex
0000ea6c g     F .text	00000618 .hidden __umoddi3
0001504c g     F .text	000000fc _isatty
00008c0c g     F .text	00000570 _realloc_r
00019f48 g       *ABS*	00000000 __bss_end
00001d80 g     F .text	0000017c alt_iic_isr_register
000021e0 g     F .text	00000158 alt_tick
0000e3e0 g     F .text	0000068c .hidden __udivdi3
00016558 g     O .rodata	00000028 __mprec_bigtens
0000ba6c g     F .text	0000013c __s2b
0000e34c g     F .text	00000018 abort
000154d0 g     F .text	00000168 _open
00015f68 g     O .rodata	00000040 S1
00015784 g     F .text	000000b4 _sbrk
0000c358 g     F .text	00000058 __mcmp
00003224 g     F .text	00000098 __stack_chk_fail
000169b0 g       *ABS*	00000000 __tbss_start
0000264c g     F .text	0000007c alt_niosv_mtimecmp_interrupt_init
000146ac g     F .text	00000094 .hidden __unordtf2
00002ca0 g     F .text	00000034 __fp_lock_all
00002148 g     F .text	00000098 alt_alarm_stop
0000b274 g     F .text	000000b8 __nrv_alloc_D2A
00000108 g     F .exceptions	000000f4 alt_irq_handler
00017a10 g     O .rwdata	00000028 alt_dev_null
00000314 g     F .text	0000009c permute
00003f9c g     F .text	0000005c __libc_fini_array
00002418 g     F .text	00000080 alt_niosv_mtime_get
00002740 g     F .text	000000e4 _reclaim_reent
00001ae0 g     F .text	0000001c alt_dcache_flush_all
0000bba8 g     F .text	00000078 __hi0bits
000000e8 g     F .exceptions	00000020 break_operation
00011520 g     F .text	00000084 .hidden __fixdfsi
00019bc4 g     O .bss	00000001 __lock___malloc_recursive_mutex
0001828c g       *ABS*	00000000 __ram_rwdata_end
00019c58 g     O .bss	00000138 __sf
00018260 g     O .rwdata	00000008 alt_dev_list
00008594 g     F .text	00000014 write
000023f4 g     F .text	00000024 alt_timestamp_freq
000169b0 g       *ABS*	00000000 __ram_rodata_end
00015ed8 g     O .rodata	00000020 IP_INV
00015c9c g     F .text	00000010 fstat
00000000 g       *ABS*	00000000 __alt_mem_SDRAM
00010380 g     F .text	00000108 .hidden __ledf2
00014740 g     F .text	00000100 .hidden __fixtfsi
0000c078 g     F .text	00000150 __pow5mult
00014c94 g     F .text	00000010 .hidden __umodsi3
00009568 g     F .text	00001c7c __gdtoa
00019f48 g       *ABS*	00000000 end
00001b28 g     F .text	0000003c alt_dev_reg
00004024 g     F .text	00000004 __retarget_lock_release_recursive
00004018 g     F .text	00000008 __retarget_lock_try_acquire_recursive
00000ff0 g     F .text	000000c0 altera_avalon_jtag_uart_init
00032000 g       *ABS*	00000000 __alt_stack_pointer
00014cf8 g     F .text	00000088 .hidden __clzsi2
0000173c g     F .text	0000023c altera_avalon_jtag_uart_write
00002c88 g     F .text	0000000c __sfp_lock_acquire
00008838 g     F .text	000000c4 memchr
000047c8 g     F .text	00000308 _free_r
0000cd3c g     F .text	0000000c __locale_mb_cur_max
00003ad8 g     F .text	00000154 __call_exitprocs
00019db8 g     O .bss	00000190 __atexit0
0001827c g     O .rwdata	00000004 __malloc_sbrk_base
00000bac g     F .text	000000ac _start
00019b80 g     O .bss	00000004 _alt_tick_rate
0000b344 g     F .text	00000270 __quorem_D2A
00004010 g     F .text	00000008 __retarget_lock_try_acquire
000152c4 g     F .text	000000e0 _lseek
0000c1c8 g     F .text	00000190 __lshift
0001188c g     F .text	00000160 .hidden __lttf2
00019b88 g     O .bss	00000008 _alt_nticks
000052e0 g     F .text	000000a4 signal
0001165c g     F .text	000000d0 .hidden __netf2
00002514 g     F .text	0000008c alt_niosv_mtimecmp_get
00000df0 g     F .text	0000008c alt_sys_init
00002fa0 g     F .text	00000064 _open_r
000169b0 g       *ABS*	00000000 __tdata_source
000085a8 g     F .text	000000ec __register_exitproc
00009448 g     F .text	00000120 _ldcheck
0000bdb0 g     F .text	000002c8 __multiply
000013a4 g     F .text	0000006c altera_avalon_jtag_uart_close
00014c20 g     F .text	00000024 .hidden __mulsi3
000169b0 g       *ABS*	00000000 __ram_rwdata_start
0000b5b4 g     F .text	000000ac strncpy
00015e70 g       *ABS*	00000000 __ram_rodata_start
00019d90 g     O .bss	00000028 __malloc_current_mallinfo
0000c794 g     F .text	00000158 __d2b
00019b90 g     O .bss	00000008 alt_niosv_timestamp_offset
00015f18 g     O .rodata	00000010 P4
00019b6c g     O .bss	00000004 alt_niosv_timer_interrupt_handler
00000e7c g     F .text	00000064 altera_avalon_jtag_uart_read_fd
00015bdc g     F .text	000000c0 alt_get_fd
000149d8 g     F .text	00000248 .hidden __extenddftf2
00004ecc g     F .text	00000058 _close_r
00000f44 g     F .text	00000054 altera_avalon_jtag_uart_close_fd
00019f48 g       *ABS*	00000000 __alt_stack_base
00000f98 g     F .text	00000058 altera_avalon_jtag_uart_ioctl_fd
00004004 g     F .text	00000004 __retarget_lock_close_recursive
000086f8 g     F .text	00000140 __swsetup_r
000006bc g     F .text	00000138 encrypt
0000f94c g     F .text	000008a8 .hidden __divdf3
00002ac0 g     F .text	00000158 __sfp
0000ca38 g     F .text	00000068 __copybits
00017ce4 g     O .rwdata	00000408 __malloc_av_
00019bb0 g     O .bss	00000004 __atexit
00010488 g     F .text	00000790 .hidden __muldf3
000030b8 g     F .text	0000005c __sread
00015aa0 g     F .text	0000013c alt_find_file
00001ba8 g     F .text	000000a8 alt_dev_llist_insert
00003f70 g     F .text	0000000c __malloc_lock
00015cb4 g       *ABS*	00000000 __fini_array_start
00004d1c g     F .text	000000e0 _fflush_r
0000cb04 g     F .text	000001bc _calloc_r
0000400c g     F .text	00000004 __retarget_lock_acquire_recursive
00019b68 g       *ABS*	00000000 __bss_start
000169b0 g       *ABS*	00000000 __tdata_start
000169b0 g       *ABS*	00000000 __tdata_end
000041b0 g     F .text	000000dc memset
000009a0 g     F .text	0000020c main
00019b78 g     O .bss	00000004 alt_envp
00019ba4 g     O .bss	00000004 __malloc_max_total_mem
00000438 g     F .text	0000008c sbox_lookup
00000ee0 g     F .text	00000064 altera_avalon_jtag_uart_write_fd
00003ffc g     F .text	00000004 __retarget_lock_init_recursive
00015eb8 g     O .rodata	00000020 IP
0000321c g     F .text	00000008 __sclose
00032000 g       *ABS*	00000000 __alt_heap_limit
000041a4 g     F .text	0000000c fclose
0000235c g     F .text	00000040 alt_timestamp_start
00015cb4 g       *ABS*	00000000 __init_array_end
000032fc g     F .text	000007dc _malloc_r
0000cfcc g     F .text	00000030 __ascii_wctomb
0001826c g     O .rwdata	00000004 alt_errno
0000092c g     F .text	00000074 print_bits
0000cf40 g     F .text	00000038 _fiprintf_r
00005384 g     F .text	0000005c _init_signal
0000e364 g     F .text	0000000c _mbtowc_r
00014c44 g     F .text	00000084 .hidden __divsi3
00004688 g     F .text	00000140 _malloc_trim_r
0000b32c g     F .text	00000018 __freedtoa
0000cdc4 g     F .text	0000017c strcmp
00015e70 g       *ABS*	00000000 __flash_rodata_start
0000e240 g     F .text	00000014 vfiprintf
00003ff8 g     F .text	00000004 __retarget_lock_init
000119ec g     F .text	0000151c .hidden __multf3
000101f4 g     F .text	0000008c .hidden __nedf2
00000db8 g     F .text	00000038 alt_irq_init
000020d4 g     F .text	00000074 alt_release_fd
00016850 g     O .rodata	00000100 .hidden __clz_tab
00019bd4 g     O .bss	00000004 _PathLocale
00003f88 g     F .text	00000014 atexit
00003c9c g     F .text	00000064 _write_r
0000cd48 g     F .text	0000007c setlocale
00018278 g     O .rwdata	00000004 _impure_ptr
00019b70 g     O .bss	00000004 alt_argc
00004ad0 g     F .text	0000024c __sflush_r
00001cb0 g     F .text	00000060 _do_dtors
00003004 g     F .text	000000b4 _fwalk_sglue
0001172c g     F .text	00000160 .hidden __gttf2
0000e370 g     F .text	00000068 __ascii_mbtowc
00012f08 g     F .text	000017a4 .hidden __subtf3
0000c610 g     F .text	00000068 __ulp
00002cd4 g     F .text	00000034 __fp_unlock_all
00018258 g     O .rwdata	00000008 alt_fs_list
00000020 g       *ABS*	00000000 __ram_exceptions_start
00008910 g     F .text	0000000c localeconv
0000239c g     F .text	00000058 alt_timestamp
00003e98 g     F .text	000000d8 __swhatbuf_r
00001d2c g     F .text	00000054 alt_ic_isr_register
00017cd8 g     O .rwdata	0000000c __sglue
00000020 g     F .exceptions	00000000 trap_vector
000004c4 g     F .text	00000128 generate_keys
0001587c g     F .text	00000104 _write
0001828c g       *ABS*	00000000 _edata
00019f48 g       *ABS*	00000000 _end
00000314 g       *ABS*	00000000 __ram_exceptions_end
00019bc8 g     O .bss	00000001 __lock___at_quick_exit_mutex
00001410 g     F .text	00000100 altera_avalon_jtag_uart_ioctl
00002338 g     F .text	00000024 intel_niosv_irq_init
0000311c g     F .text	00000088 __swrite
00018280 g     O .rwdata	00000004 __malloc_trim_threshold
000026c8 g     F .text	00000030 exit
0000cf78 g     F .text	00000048 fiprintf
0000cffc g     F .text	00001244 _vfiprintf_r
0000b660 g     F .text	000000e4 __rshift_D2A
0000c3b0 g     F .text	00000260 __mdiff
00015ef8 g     O .rodata	00000020 EP
00014cc8 g     F .text	00000030 .hidden __modsi3
0001518c g     F .text	000000f4 _kill
00017bb8 g     O .rwdata	00000120 _impure_data
00008a74 g     F .text	00000198 frexpl
00032000 g       *ABS*	00000000 __alt_data_end
000169b0 g       *ABS*	00000000 __tbss_end
00002c94 g     F .text	0000000c __sfp_lock_release
0000917c g     F .text	000002cc _ldtoa_r
0001670c g     O .rodata	00000101 _ctype_
0001567c g     F .text	00000108 _read
00015cac g       *ABS*	00000000 __init_array_start
00004008 g     F .text	00000004 __retarget_lock_acquire
00004020 g     F .text	00000004 __retarget_lock_release
00014ea4 g     F .text	00000040 _exit
00001978 g     F .text	00000168 alt_alarm_start
00019bb8 g     O .bss	00000001 __lock___dd_hash_mutex
00003d00 g     F .text	00000198 __smakebuf_r
00019bbc g     O .bss	00000001 __lock___tz_mutex
000044bc g     F .text	0000008c strlen
00015f28 g     O .rodata	00000040 S0
00004f84 g     F .text	0000005c _init_signal_r
000026f8 g     F .text	00000048 open
00010280 g     F .text	00000100 .hidden __gedf2
0000b7fc g     F .text	00000014 __assert
0000891c g     F .text	0000004c __sprint_r
00001d10 g     F .text	0000001c alt_icache_flush_all
00002498 g     F .text	0000007c alt_niosv_mtimecmp_set
0000cfc0 g     F .text	0000000c _wctomb_r
00010c18 g     F .text	00000908 .hidden __subdf3
00005af8 g     F .text	00002990 _vfprintf_r
0000bc20 g     F .text	000000e0 __lo0bits
00018270 g     O .rwdata	00000008 alt_alarm_list
00001c50 g     F .text	00000060 _do_ctors
000053e0 g     F .text	000000e4 __sigtramp
00004028 g     F .text	0000000c close
000180ec g     O .rwdata	0000016c __global_locale
00000cbc g     F .text	00000074 alt_load
00008488 g     F .text	00000014 vfprintf
00019b68 g     O .bss	00000004 alt_niosv_software_interrupt_handler
00019bd0 g     O .bss	00000001 __lock___sfp_recursive_mutex
0000b744 g     F .text	00000064 __trailz_D2A
00014dc4 g     F .text	000000e0 _close
00005220 g     F .text	000000c0 raise
000032f0 g     F .text	0000000c free
0000b8e8 g     F .text	00000184 __multadd
0000b8c4 g     F .text	00000024 _Bfree



Disassembly of section .entry:

00000000 <__reset>:
 * Jump to the _start entry point in the .text section if reset code
 * is allowed or if optimizing for RTL simulation.
 */

    /* Jump to the _start entry point in the .text section. */
    tail _start
   0:	3ad0006f          	j	bac <_start>
	...

Disassembly of section .exceptions:

00000020 <trap_vector>:
    /* Save caller-saved registers on the stack */

#if __riscv_flen == 32 // rv32if
    addi sp, sp, -36 * 4
#elif ALT_CPU_NUM_GPR == 32 // rv32i
	addi sp, sp, -16 * 4
  20:	fc010113          	add	sp,sp,-64
#else // rv32e (16-bit)
	addi sp, sp, -10 * 4
#endif

    /* rv32e (16-bit), rv32i and rv32if */
    sw ra,  0 * 4(sp)
  24:	00112023          	sw	ra,0(sp)
    sw t0,  1 * 4(sp)
  28:	00512223          	sw	t0,4(sp)
    sw t1,  2 * 4(sp)
  2c:	00612423          	sw	t1,8(sp)
    sw t2,  3 * 4(sp)
  30:	00712623          	sw	t2,12(sp)
    sw a0,  4 * 4(sp)
  34:	00a12823          	sw	a0,16(sp)
    sw a1,  5 * 4(sp)
  38:	00b12a23          	sw	a1,20(sp)
    sw a2,  6 * 4(sp)
  3c:	00c12c23          	sw	a2,24(sp)
    sw a3,  7 * 4(sp)
  40:	00d12e23          	sw	a3,28(sp)
    sw a4,  8 * 4(sp)
  44:	02e12023          	sw	a4,32(sp)
    sw a5,  9 * 4(sp)
  48:	02f12223          	sw	a5,36(sp)

    /* rv32i and rv32if */
#if ALT_CPU_NUM_GPR == 32 
    sw a6, 10 * 4(sp)
  4c:	03012423          	sw	a6,40(sp)
    sw a7, 11 * 4(sp)
  50:	03112623          	sw	a7,44(sp)
    sw t3, 12 * 4(sp)
  54:	03c12823          	sw	t3,48(sp)
    sw t4, 13 * 4(sp)
  58:	03d12a23          	sw	t4,52(sp)
    sw t5, 14 * 4(sp)
  5c:	03e12c23          	sw	t5,56(sp)
    sw t6, 15 * 4(sp)
  60:	03f12e23          	sw	t6,60(sp)
    fsw fa6, 34 * 4(sp)
    fsw fa7, 35 * 4(sp)
#endif
   
    /* Call handle_trap to dispatch the correct handler, if available */
    csrr a0, mcause
  64:	34202573          	csrr	a0,mcause
    csrr a1, mepc
  68:	341025f3          	csrr	a1,mepc
    csrr a2, mtval
  6c:	34302673          	csrr	a2,mtval
    jal handle_trap
  70:	18c000ef          	jal	1fc <handle_trap>
    csrw mepc, a0
  74:	34151073          	csrw	mepc,a0

    /* Restore caller-saved registers */

    /* rv32e (16-bit), rv32i and rv32if */
    lw ra,  0 * 4(sp)
  78:	00012083          	lw	ra,0(sp)
    lw t0,  1 * 4(sp)
  7c:	00412283          	lw	t0,4(sp)
    lw t1,  2 * 4(sp)
  80:	00812303          	lw	t1,8(sp)
    lw t2,  3 * 4(sp)
  84:	00c12383          	lw	t2,12(sp)
    lw a0,  4 * 4(sp)
  88:	01012503          	lw	a0,16(sp)
    lw a1,  5 * 4(sp)
  8c:	01412583          	lw	a1,20(sp)
    lw a2,  6 * 4(sp)
  90:	01812603          	lw	a2,24(sp)
    lw a3,  7 * 4(sp)
  94:	01c12683          	lw	a3,28(sp)
    lw a4,  8 * 4(sp)
  98:	02012703          	lw	a4,32(sp)
    lw a5,  9 * 4(sp)
  9c:	02412783          	lw	a5,36(sp)

    /* rv32i and rv32if */
#if ALT_CPU_NUM_GPR == 32	
    lw a6, 10 * 4(sp)
  a0:	02812803          	lw	a6,40(sp)
    lw a7, 11 * 4(sp)
  a4:	02c12883          	lw	a7,44(sp)
    lw t3, 12 * 4(sp)
  a8:	03012e03          	lw	t3,48(sp)
    lw t4, 13 * 4(sp)
  ac:	03412e83          	lw	t4,52(sp)
    lw t5, 14 * 4(sp)
  b0:	03812f03          	lw	t5,56(sp)
    lw t6, 15 * 4(sp)
  b4:	03c12f83          	lw	t6,60(sp)
#endif

#if __riscv_flen == 32 // rv32if
    addi sp, sp, 36 * 4
#elif ALT_CPU_NUM_GPR == 32 // rv32i
	addi sp, sp, 16 * 4
  b8:	04010113          	add	sp,sp,64
    lw s0, 0(sp)
    lw s1, 4(sp)
    addi sp, sp, 8
#endif

    mret
  bc:	30200073          	mret

000000c0 <is_ecc_handler_present>:
    }

    return epc;
}

alt_u32 is_ecc_handler_present (alt_u32 e_code) {
  c0:	fd010113          	add	sp,sp,-48
  c4:	02812623          	sw	s0,44(sp)
  c8:	03010413          	add	s0,sp,48
  cc:	fca42e23          	sw	a0,-36(s0)
#ifdef ALT_CPU_ECC_PRESENT
    alt_u32 present = (e_code == NIOSV_ECC_EXCEPTION && alt_ecc_exception_handler);
#else
    alt_u32 present = 0;
  d0:	fe042623          	sw	zero,-20(s0)
#endif
    return present;
  d4:	fec42783          	lw	a5,-20(s0)
} 
  d8:	00078513          	mv	a0,a5
  dc:	02c12403          	lw	s0,44(sp)
  e0:	03010113          	add	sp,sp,48
  e4:	00008067          	ret

000000e8 <break_operation>:

void break_operation (void)
{
  e8:	ff010113          	add	sp,sp,-16
  ec:	00812623          	sw	s0,12(sp)
  f0:	01010413          	add	s0,sp,16
#ifdef ALT_CPU_HAS_DEBUG_STUB
            NIOSV_EBREAK();
  f4:	00100073          	ebreak
#else  // ALT_CPU_HAS_DEBUG_STUB
            while(1)
                ;
#endif // ALT_CPU_HAS_DEBUG_STUB  
}
  f8:	00000013          	nop
  fc:	00c12403          	lw	s0,12(sp)
 100:	01010113          	add	sp,sp,16
 104:	00008067          	ret

00000108 <alt_irq_handler>:
 * This means that if there is never a call to alt_irq_register() then
 * this function will not get linked in to the executable. This is acceptable
 * since if no handler is ever registered, then an interrupt can never occur.
 */
void alt_irq_handler (void)
{
 108:	fd010113          	add	sp,sp,-48
 10c:	02112623          	sw	ra,44(sp)
 110:	02812423          	sw	s0,40(sp)
 114:	03010413          	add	s0,sp,48
    alt_u32 i;

    /*
     * Notify the operating system that we are at interrupt level.
     */  
    ALT_OS_INT_ENTER();
 118:	00000013          	nop
{
#if ALT_HAS_IRQ_SUPPORT
    alt_u32 active;
    alt_u32 enabled;

    NIOSV_READ_CSR(NIOSV_MIP_CSR, active);
 11c:	344027f3          	csrr	a5,mip
 120:	fef42023          	sw	a5,-32(s0)
    NIOSV_READ_CSR(NIOSV_MIE_CSR, enabled);
 124:	304027f3          	csrr	a5,mie
 128:	fef42223          	sw	a5,-28(s0)

    // Since this is used by alt_irq_handler, we want to only process the upper 16-bits
    // --> the interrupt lines connected via Platform Designer...
    return (active & enabled) >> 16;
 12c:	fe042703          	lw	a4,-32(s0)
 130:	fe442783          	lw	a5,-28(s0)
 134:	00f777b3          	and	a5,a4,a5
 138:	0107d793          	srl	a5,a5,0x10
     * reduced by finding out which interrupts are pending as late as possible.
     * Consider the case where the high priority interupt is asserted during
     * the interrupt entry sequence for a lower priority interrupt to see why
     * this is the case.
     */
    active = alt_irq_pending();
 13c:	fcf42a23          	sw	a5,-44(s0)

    do
    {
        i = 0;
 140:	fc042e23          	sw	zero,-36(s0)
        mask = 1;
 144:	00100793          	li	a5,1
 148:	fcf42c23          	sw	a5,-40(s0)
         * called to clear the interrupt condition.
         */

        do
        {
            if (active & mask)
 14c:	fd442703          	lw	a4,-44(s0)
 150:	fd842783          	lw	a5,-40(s0)
 154:	00f777b3          	and	a5,a4,a5
 158:	06078263          	beqz	a5,1bc <alt_irq_handler+0xb4>
            {
                alt_irq[i].handler(alt_irq[i].context); 
 15c:	0001a7b7          	lui	a5,0x1a
 160:	bd878713          	add	a4,a5,-1064 # 19bd8 <alt_irq>
 164:	fdc42783          	lw	a5,-36(s0)
 168:	00379793          	sll	a5,a5,0x3
 16c:	00f707b3          	add	a5,a4,a5
 170:	0007a703          	lw	a4,0(a5)
 174:	0001a7b7          	lui	a5,0x1a
 178:	bd878693          	add	a3,a5,-1064 # 19bd8 <alt_irq>
 17c:	fdc42783          	lw	a5,-36(s0)
 180:	00379793          	sll	a5,a5,0x3
 184:	00f687b3          	add	a5,a3,a5
 188:	0047a783          	lw	a5,4(a5)
 18c:	00078513          	mv	a0,a5
 190:	000700e7          	jalr	a4
                break;
 194:	00000013          	nop
    NIOSV_READ_CSR(NIOSV_MIP_CSR, active);
 198:	344027f3          	csrr	a5,mip
 19c:	fef42423          	sw	a5,-24(s0)
    NIOSV_READ_CSR(NIOSV_MIE_CSR, enabled);
 1a0:	304027f3          	csrr	a5,mie
 1a4:	fef42623          	sw	a5,-20(s0)
    return (active & enabled) >> 16;
 1a8:	fe842703          	lw	a4,-24(s0)
 1ac:	fec42783          	lw	a5,-20(s0)
 1b0:	00f777b3          	and	a5,a4,a5
 1b4:	0107d793          	srl	a5,a5,0x10
 1b8:	0200006f          	j	1d8 <alt_irq_handler+0xd0>
            }
            
            mask <<= 1;
 1bc:	fd842783          	lw	a5,-40(s0)
 1c0:	00179793          	sll	a5,a5,0x1
 1c4:	fcf42c23          	sw	a5,-40(s0)
            i++;
 1c8:	fdc42783          	lw	a5,-36(s0)
 1cc:	00178793          	add	a5,a5,1
 1d0:	fcf42e23          	sw	a5,-36(s0)
            if (active & mask)
 1d4:	f79ff06f          	j	14c <alt_irq_handler+0x44>
            
        } while (1);

        active = alt_irq_pending();
 1d8:	fcf42a23          	sw	a5,-44(s0)
    
    } while (active);
 1dc:	fd442783          	lw	a5,-44(s0)
 1e0:	f60790e3          	bnez	a5,140 <alt_irq_handler+0x38>

    /*
     * Notify the operating system that interrupt processing is complete.
     */ 

    ALT_OS_INT_EXIT();
 1e4:	00000013          	nop
}
 1e8:	00000013          	nop
 1ec:	02c12083          	lw	ra,44(sp)
 1f0:	02812403          	lw	s0,40(sp)
 1f4:	03010113          	add	sp,sp,48
 1f8:	00008067          	ret

000001fc <handle_trap>:
{
 1fc:	fd010113          	add	sp,sp,-48
 200:	02112623          	sw	ra,44(sp)
 204:	02812423          	sw	s0,40(sp)
 208:	03010413          	add	s0,sp,48
 20c:	fca42e23          	sw	a0,-36(s0)
 210:	fcb42c23          	sw	a1,-40(s0)
 214:	fcc42a23          	sw	a2,-44(s0)
    is_irq = (cause & NIOSV_MCAUSE_INTERRUPT_MASK);
 218:	fdc42703          	lw	a4,-36(s0)
 21c:	800007b7          	lui	a5,0x80000
 220:	00f777b3          	and	a5,a4,a5
 224:	fef42423          	sw	a5,-24(s0)
    exception_code = (cause & ~NIOSV_MCAUSE_INTERRUPT_MASK);
 228:	fdc42703          	lw	a4,-36(s0)
 22c:	800007b7          	lui	a5,0x80000
 230:	fff78793          	add	a5,a5,-1 # 7fffffff <__alt_data_end+0x7ffcdfff>
 234:	00f777b3          	and	a5,a4,a5
 238:	fef42623          	sw	a5,-20(s0)
    if (is_irq) {
 23c:	fe842783          	lw	a5,-24(s0)
 240:	08078863          	beqz	a5,2d0 <handle_trap+0xd4>
        switch (exception_code) {
 244:	fec42703          	lw	a4,-20(s0)
 248:	00300793          	li	a5,3
 24c:	04f70063          	beq	a4,a5,28c <handle_trap+0x90>
 250:	fec42703          	lw	a4,-20(s0)
 254:	00700793          	li	a5,7
 258:	06f71263          	bne	a4,a5,2bc <handle_trap+0xc0>
                if (alt_niosv_timer_interrupt_handler) {
 25c:	0001a7b7          	lui	a5,0x1a
 260:	b6c7a783          	lw	a5,-1172(a5) # 19b6c <alt_niosv_timer_interrupt_handler>
 264:	08078263          	beqz	a5,2e8 <handle_trap+0xec>
                    ALT_OS_INT_ENTER();
 268:	00000013          	nop
                    alt_niosv_timer_interrupt_handler(cause, epc, tval);
 26c:	0001a7b7          	lui	a5,0x1a
 270:	b6c7a783          	lw	a5,-1172(a5) # 19b6c <alt_niosv_timer_interrupt_handler>
 274:	fd442603          	lw	a2,-44(s0)
 278:	fd842583          	lw	a1,-40(s0)
 27c:	fdc42503          	lw	a0,-36(s0)
 280:	000780e7          	jalr	a5
                    ALT_OS_INT_EXIT();
 284:	00000013          	nop
                break;
 288:	0600006f          	j	2e8 <handle_trap+0xec>
                if (alt_niosv_software_interrupt_handler) {
 28c:	0001a7b7          	lui	a5,0x1a
 290:	b687a783          	lw	a5,-1176(a5) # 19b68 <alt_niosv_software_interrupt_handler>
 294:	04078e63          	beqz	a5,2f0 <handle_trap+0xf4>
                    ALT_OS_INT_ENTER();
 298:	00000013          	nop
                    alt_niosv_software_interrupt_handler(cause, epc, tval);
 29c:	0001a7b7          	lui	a5,0x1a
 2a0:	b687a783          	lw	a5,-1176(a5) # 19b68 <alt_niosv_software_interrupt_handler>
 2a4:	fd442603          	lw	a2,-44(s0)
 2a8:	fd842583          	lw	a1,-40(s0)
 2ac:	fdc42503          	lw	a0,-36(s0)
 2b0:	000780e7          	jalr	a5
                    ALT_OS_INT_EXIT();
 2b4:	00000013          	nop
                break;
 2b8:	0380006f          	j	2f0 <handle_trap+0xf4>
                if (exception_code >= 16) {
 2bc:	fec42703          	lw	a4,-20(s0)
 2c0:	00f00793          	li	a5,15
 2c4:	02e7fa63          	bgeu	a5,a4,2f8 <handle_trap+0xfc>
                    alt_irq_handler();
 2c8:	e41ff0ef          	jal	108 <alt_irq_handler>
                break;
 2cc:	02c0006f          	j	2f8 <handle_trap+0xfc>
        if (!is_ecc_handler_present(exception_code)) {
 2d0:	fec42503          	lw	a0,-20(s0)
 2d4:	dedff0ef          	jal	c0 <is_ecc_handler_present>
 2d8:	00050793          	mv	a5,a0
 2dc:	02079063          	bnez	a5,2fc <handle_trap+0x100>
             break_operation();
 2e0:	e09ff0ef          	jal	e8 <break_operation>
 2e4:	0180006f          	j	2fc <handle_trap+0x100>
                break;
 2e8:	00000013          	nop
 2ec:	0100006f          	j	2fc <handle_trap+0x100>
                break;
 2f0:	00000013          	nop
 2f4:	0080006f          	j	2fc <handle_trap+0x100>
                break;
 2f8:	00000013          	nop
    return epc;
 2fc:	fd842783          	lw	a5,-40(s0)
}
 300:	00078513          	mv	a0,a5
 304:	02c12083          	lw	ra,44(sp)
 308:	02812403          	lw	s0,40(sp)
 30c:	03010113          	add	sp,sp,48
 310:	00008067          	ret

Disassembly of section .text:

00000314 <permute>:
    {3, 0, 1, 0},
    {2, 1, 0, 3}
};

unsigned int permute(unsigned int input, const int table[], int table_size, int input_bits)
{
     314:	fd010113          	add	sp,sp,-48
     318:	02812623          	sw	s0,44(sp)
     31c:	03010413          	add	s0,sp,48
     320:	fca42e23          	sw	a0,-36(s0)
     324:	fcb42c23          	sw	a1,-40(s0)
     328:	fcc42a23          	sw	a2,-44(s0)
     32c:	fcd42823          	sw	a3,-48(s0)
    unsigned int output = 0;
     330:	fe042223          	sw	zero,-28(s0)
    
    for (int i = 0; i < table_size; i++)
     334:	fe042423          	sw	zero,-24(s0)
     338:	0580006f          	j	390 <permute+0x7c>
	{
        output <<= 1;
     33c:	fe442783          	lw	a5,-28(s0)
     340:	00179793          	sll	a5,a5,0x1
     344:	fef42223          	sw	a5,-28(s0)
        int bit_pos = input_bits - table[i];
     348:	fe842783          	lw	a5,-24(s0)
     34c:	00279793          	sll	a5,a5,0x2
     350:	fd842703          	lw	a4,-40(s0)
     354:	00f707b3          	add	a5,a4,a5
     358:	0007a783          	lw	a5,0(a5)
     35c:	fd042703          	lw	a4,-48(s0)
     360:	40f707b3          	sub	a5,a4,a5
     364:	fef42623          	sw	a5,-20(s0)
        output |= (input >> bit_pos) & 1;
     368:	fec42783          	lw	a5,-20(s0)
     36c:	fdc42703          	lw	a4,-36(s0)
     370:	00f757b3          	srl	a5,a4,a5
     374:	0017f793          	and	a5,a5,1
     378:	fe442703          	lw	a4,-28(s0)
     37c:	00f767b3          	or	a5,a4,a5
     380:	fef42223          	sw	a5,-28(s0)
    for (int i = 0; i < table_size; i++)
     384:	fe842783          	lw	a5,-24(s0)
     388:	00178793          	add	a5,a5,1
     38c:	fef42423          	sw	a5,-24(s0)
     390:	fe842703          	lw	a4,-24(s0)
     394:	fd442783          	lw	a5,-44(s0)
     398:	faf742e3          	blt	a4,a5,33c <permute+0x28>
    }
    
    return output;
     39c:	fe442783          	lw	a5,-28(s0)
}
     3a0:	00078513          	mv	a0,a5
     3a4:	02c12403          	lw	s0,44(sp)
     3a8:	03010113          	add	sp,sp,48
     3ac:	00008067          	ret

000003b0 <left_circular_shift>:

unsigned int left_circular_shift(unsigned int value, int bits, int shifts)
{
     3b0:	fd010113          	add	sp,sp,-48
     3b4:	02112623          	sw	ra,44(sp)
     3b8:	02812423          	sw	s0,40(sp)
     3bc:	03010413          	add	s0,sp,48
     3c0:	fca42e23          	sw	a0,-36(s0)
     3c4:	fcb42c23          	sw	a1,-40(s0)
     3c8:	fcc42a23          	sw	a2,-44(s0)
    shifts = shifts % bits;
     3cc:	fd442783          	lw	a5,-44(s0)
     3d0:	fd842583          	lw	a1,-40(s0)
     3d4:	00078513          	mv	a0,a5
     3d8:	0f1140ef          	jal	14cc8 <__modsi3>
     3dc:	00050793          	mv	a5,a0
     3e0:	fcf42a23          	sw	a5,-44(s0)
    unsigned int mask = (1 << bits) - 1;
     3e4:	fd842783          	lw	a5,-40(s0)
     3e8:	00100713          	li	a4,1
     3ec:	00f717b3          	sll	a5,a4,a5
     3f0:	fff78793          	add	a5,a5,-1
     3f4:	fef42623          	sw	a5,-20(s0)
    return ((value << shifts) | (value >> (bits - shifts))) & mask;
     3f8:	fd442783          	lw	a5,-44(s0)
     3fc:	fdc42703          	lw	a4,-36(s0)
     400:	00f71733          	sll	a4,a4,a5
     404:	fd842683          	lw	a3,-40(s0)
     408:	fd442783          	lw	a5,-44(s0)
     40c:	40f687b3          	sub	a5,a3,a5
     410:	fdc42683          	lw	a3,-36(s0)
     414:	00f6d7b3          	srl	a5,a3,a5
     418:	00f76733          	or	a4,a4,a5
     41c:	fec42783          	lw	a5,-20(s0)
     420:	00f777b3          	and	a5,a4,a5
}
     424:	00078513          	mv	a0,a5
     428:	02c12083          	lw	ra,44(sp)
     42c:	02812403          	lw	s0,40(sp)
     430:	03010113          	add	sp,sp,48
     434:	00008067          	ret

00000438 <sbox_lookup>:

unsigned int sbox_lookup(const int sbox[4][4], unsigned int input_4bit)
{
     438:	fd010113          	add	sp,sp,-48
     43c:	02812623          	sw	s0,44(sp)
     440:	03010413          	add	s0,sp,48
     444:	fca42e23          	sw	a0,-36(s0)
     448:	fcb42c23          	sw	a1,-40(s0)
    // Row = first bit (bit 3) and last bit (bit 0)
    int row = ((input_4bit >> 3) & 1) * 2 + (input_4bit & 1);
     44c:	fd842783          	lw	a5,-40(s0)
     450:	0037d793          	srl	a5,a5,0x3
     454:	0017f793          	and	a5,a5,1
     458:	00179713          	sll	a4,a5,0x1
     45c:	fd842783          	lw	a5,-40(s0)
     460:	0017f793          	and	a5,a5,1
     464:	00f707b3          	add	a5,a4,a5
     468:	fef42423          	sw	a5,-24(s0)
    
    // Column = middle two bits (bit 2 and bit 1)
    int col = ((input_4bit >> 2) & 1) * 2 + ((input_4bit >> 1) & 1);
     46c:	fd842783          	lw	a5,-40(s0)
     470:	0027d793          	srl	a5,a5,0x2
     474:	0017f793          	and	a5,a5,1
     478:	00179713          	sll	a4,a5,0x1
     47c:	fd842783          	lw	a5,-40(s0)
     480:	0017d793          	srl	a5,a5,0x1
     484:	0017f793          	and	a5,a5,1
     488:	00f707b3          	add	a5,a4,a5
     48c:	fef42623          	sw	a5,-20(s0)
    
    return (unsigned int)(sbox[row][col] & 0x03);
     490:	fe842783          	lw	a5,-24(s0)
     494:	00479793          	sll	a5,a5,0x4
     498:	fdc42703          	lw	a4,-36(s0)
     49c:	00f70733          	add	a4,a4,a5
     4a0:	fec42783          	lw	a5,-20(s0)
     4a4:	00279793          	sll	a5,a5,0x2
     4a8:	00f707b3          	add	a5,a4,a5
     4ac:	0007a783          	lw	a5,0(a5)
     4b0:	0037f793          	and	a5,a5,3
}
     4b4:	00078513          	mv	a0,a5
     4b8:	02c12403          	lw	s0,44(sp)
     4bc:	03010113          	add	sp,sp,48
     4c0:	00008067          	ret

000004c4 <generate_keys>:

void generate_keys(unsigned int key_10bit, unsigned int *key1_8bit, unsigned int *key2_8bit)
{
     4c4:	fd010113          	add	sp,sp,-48
     4c8:	02112623          	sw	ra,44(sp)
     4cc:	02812423          	sw	s0,40(sp)
     4d0:	03010413          	add	s0,sp,48
     4d4:	fca42e23          	sw	a0,-36(s0)
     4d8:	fcb42c23          	sw	a1,-40(s0)
     4dc:	fcc42a23          	sw	a2,-44(s0)
    // P10
    unsigned int p10_key = permute(key_10bit, P10, 10, 10);
     4e0:	00a00693          	li	a3,10
     4e4:	00a00613          	li	a2,10
     4e8:	000167b7          	lui	a5,0x16
     4ec:	e7078593          	add	a1,a5,-400 # 15e70 <P10>
     4f0:	fdc42503          	lw	a0,-36(s0)
     4f4:	e21ff0ef          	jal	314 <permute>
     4f8:	fea42023          	sw	a0,-32(s0)
    
    // Split into 5-bit halves
    unsigned int left = (p10_key >> 5) & 0x1F;
     4fc:	fe042783          	lw	a5,-32(s0)
     500:	0057d793          	srl	a5,a5,0x5
     504:	01f7f793          	and	a5,a5,31
     508:	fef42223          	sw	a5,-28(s0)
    unsigned int right = p10_key & 0x1F;
     50c:	fe042783          	lw	a5,-32(s0)
     510:	01f7f793          	and	a5,a5,31
     514:	fef42423          	sw	a5,-24(s0)
    
    // Left shift each half by 1
    left = left_circular_shift(left, 5, 1);
     518:	00100613          	li	a2,1
     51c:	00500593          	li	a1,5
     520:	fe442503          	lw	a0,-28(s0)
     524:	e8dff0ef          	jal	3b0 <left_circular_shift>
     528:	fea42223          	sw	a0,-28(s0)
    right = left_circular_shift(right, 5, 1);
     52c:	00100613          	li	a2,1
     530:	00500593          	li	a1,5
     534:	fe842503          	lw	a0,-24(s0)
     538:	e79ff0ef          	jal	3b0 <left_circular_shift>
     53c:	fea42423          	sw	a0,-24(s0)
    
    // Combine and apply P8 to get Key 1
    unsigned int combined = (left << 5) | right;
     540:	fe442783          	lw	a5,-28(s0)
     544:	00579793          	sll	a5,a5,0x5
     548:	fe842703          	lw	a4,-24(s0)
     54c:	00f767b3          	or	a5,a4,a5
     550:	fef42623          	sw	a5,-20(s0)
    *key1_8bit = permute(combined, P8, 8, 10);
     554:	00a00693          	li	a3,10
     558:	00800613          	li	a2,8
     55c:	000167b7          	lui	a5,0x16
     560:	e9878593          	add	a1,a5,-360 # 15e98 <P8>
     564:	fec42503          	lw	a0,-20(s0)
     568:	dadff0ef          	jal	314 <permute>
     56c:	00050713          	mv	a4,a0
     570:	fd842783          	lw	a5,-40(s0)
     574:	00e7a023          	sw	a4,0(a5)
    
    // Left shift each half by 2 more positions for Key 2
    left = left_circular_shift(left, 5, 1);
     578:	00100613          	li	a2,1
     57c:	00500593          	li	a1,5
     580:	fe442503          	lw	a0,-28(s0)
     584:	e2dff0ef          	jal	3b0 <left_circular_shift>
     588:	fea42223          	sw	a0,-28(s0)
    right = left_circular_shift(right, 5, 1);
     58c:	00100613          	li	a2,1
     590:	00500593          	li	a1,5
     594:	fe842503          	lw	a0,-24(s0)
     598:	e19ff0ef          	jal	3b0 <left_circular_shift>
     59c:	fea42423          	sw	a0,-24(s0)
    
    // Combine and apply P8 to get Key 2
    combined = (left << 5) | right;
     5a0:	fe442783          	lw	a5,-28(s0)
     5a4:	00579793          	sll	a5,a5,0x5
     5a8:	fe842703          	lw	a4,-24(s0)
     5ac:	00f767b3          	or	a5,a4,a5
     5b0:	fef42623          	sw	a5,-20(s0)
    *key2_8bit = permute(combined, P8, 8, 10);
     5b4:	00a00693          	li	a3,10
     5b8:	00800613          	li	a2,8
     5bc:	000167b7          	lui	a5,0x16
     5c0:	e9878593          	add	a1,a5,-360 # 15e98 <P8>
     5c4:	fec42503          	lw	a0,-20(s0)
     5c8:	d4dff0ef          	jal	314 <permute>
     5cc:	00050713          	mv	a4,a0
     5d0:	fd442783          	lw	a5,-44(s0)
     5d4:	00e7a023          	sw	a4,0(a5)
}
     5d8:	00000013          	nop
     5dc:	02c12083          	lw	ra,44(sp)
     5e0:	02812403          	lw	s0,40(sp)
     5e4:	03010113          	add	sp,sp,48
     5e8:	00008067          	ret

000005ec <round_function>:

unsigned int round_function(unsigned int input_4bit, unsigned int key_8bit)
{
     5ec:	fc010113          	add	sp,sp,-64
     5f0:	02112e23          	sw	ra,60(sp)
     5f4:	02812c23          	sw	s0,56(sp)
     5f8:	04010413          	add	s0,sp,64
     5fc:	fca42623          	sw	a0,-52(s0)
     600:	fcb42423          	sw	a1,-56(s0)
    // Expand R from 4 to 8 bits
    unsigned int expanded = permute(input_4bit, EP, 8, 4);
     604:	00400693          	li	a3,4
     608:	00800613          	li	a2,8
     60c:	000167b7          	lui	a5,0x16
     610:	ef878593          	add	a1,a5,-264 # 15ef8 <EP>
     614:	fcc42503          	lw	a0,-52(s0)
     618:	cfdff0ef          	jal	314 <permute>
     61c:	fca42823          	sw	a0,-48(s0)
    
    // XOR with key
    unsigned int xored = expanded ^ key_8bit;
     620:	fd042703          	lw	a4,-48(s0)
     624:	fc842783          	lw	a5,-56(s0)
     628:	00f747b3          	xor	a5,a4,a5
     62c:	fcf42a23          	sw	a5,-44(s0)
    
    // Split into left and right 4 bits
    unsigned int left_4bit = (xored >> 4) & 0x0F;
     630:	fd442783          	lw	a5,-44(s0)
     634:	0047d793          	srl	a5,a5,0x4
     638:	00f7f793          	and	a5,a5,15
     63c:	fcf42c23          	sw	a5,-40(s0)
    unsigned int right_4bit = xored & 0x0F;
     640:	fd442783          	lw	a5,-44(s0)
     644:	00f7f793          	and	a5,a5,15
     648:	fcf42e23          	sw	a5,-36(s0)
    
    // Apply S-boxes (4 bits → 2 bits each)
    unsigned int s0_out = sbox_lookup(S0, left_4bit);
     64c:	fd842583          	lw	a1,-40(s0)
     650:	000167b7          	lui	a5,0x16
     654:	f2878513          	add	a0,a5,-216 # 15f28 <S0>
     658:	de1ff0ef          	jal	438 <sbox_lookup>
     65c:	fea42023          	sw	a0,-32(s0)
    unsigned int s1_out = sbox_lookup(S1, right_4bit);
     660:	fdc42583          	lw	a1,-36(s0)
     664:	000167b7          	lui	a5,0x16
     668:	f6878513          	add	a0,a5,-152 # 15f68 <S1>
     66c:	dcdff0ef          	jal	438 <sbox_lookup>
     670:	fea42223          	sw	a0,-28(s0)
    
    // Combine to 4 bits
    unsigned int combined_sbox = (s0_out << 2) | s1_out;
     674:	fe042783          	lw	a5,-32(s0)
     678:	00279793          	sll	a5,a5,0x2
     67c:	fe442703          	lw	a4,-28(s0)
     680:	00f767b3          	or	a5,a4,a5
     684:	fef42423          	sw	a5,-24(s0)
    
    // Apply P4 permutation
    unsigned int p4_out = permute(combined_sbox, P4, 4, 4);
     688:	00400693          	li	a3,4
     68c:	00400613          	li	a2,4
     690:	000167b7          	lui	a5,0x16
     694:	f1878593          	add	a1,a5,-232 # 15f18 <P4>
     698:	fe842503          	lw	a0,-24(s0)
     69c:	c79ff0ef          	jal	314 <permute>
     6a0:	fea42623          	sw	a0,-20(s0)
    
    return p4_out;
     6a4:	fec42783          	lw	a5,-20(s0)
}
     6a8:	00078513          	mv	a0,a5
     6ac:	03c12083          	lw	ra,60(sp)
     6b0:	03812403          	lw	s0,56(sp)
     6b4:	04010113          	add	sp,sp,64
     6b8:	00008067          	ret

000006bc <encrypt>:

unsigned int encrypt(unsigned int input, unsigned int key_10bit)
{
     6bc:	fa010113          	add	sp,sp,-96
     6c0:	04112e23          	sw	ra,92(sp)
     6c4:	04812c23          	sw	s0,88(sp)
     6c8:	06010413          	add	s0,sp,96
     6cc:	faa42623          	sw	a0,-84(s0)
     6d0:	fab42423          	sw	a1,-88(s0)
     6d4:	0001a7b7          	lui	a5,0x1a
     6d8:	ba07a703          	lw	a4,-1120(a5) # 19ba0 <__stack_chk_guard>
     6dc:	fee42623          	sw	a4,-20(s0)
     6e0:	00000713          	li	a4,0
    unsigned int key1_8bit, key2_8bit;
    
    generate_keys(key_10bit, &key1_8bit, &key2_8bit);
     6e4:	fc040713          	add	a4,s0,-64
     6e8:	fbc40793          	add	a5,s0,-68
     6ec:	00070613          	mv	a2,a4
     6f0:	00078593          	mv	a1,a5
     6f4:	fa842503          	lw	a0,-88(s0)
     6f8:	dcdff0ef          	jal	4c4 <generate_keys>
    
    // Initial Permutation
    unsigned int ip_output = permute(input, IP, 8, 8);
     6fc:	00800693          	li	a3,8
     700:	00800613          	li	a2,8
     704:	000167b7          	lui	a5,0x16
     708:	eb878593          	add	a1,a5,-328 # 15eb8 <IP>
     70c:	fac42503          	lw	a0,-84(s0)
     710:	c05ff0ef          	jal	314 <permute>
     714:	fca42223          	sw	a0,-60(s0)
    
    // Split into left and right halves (4 bits each)
    unsigned int left = (ip_output >> 4) & 0x0F;
     718:	fc442783          	lw	a5,-60(s0)
     71c:	0047d793          	srl	a5,a5,0x4
     720:	00f7f793          	and	a5,a5,15
     724:	fcf42423          	sw	a5,-56(s0)
    unsigned int right = ip_output & 0x0F;
     728:	fc442783          	lw	a5,-60(s0)
     72c:	00f7f793          	and	a5,a5,15
     730:	fcf42623          	sw	a5,-52(s0)
    
    // Round 1 (using Key 1)
    unsigned int f_output = round_function(right, key1_8bit);
     734:	fbc42783          	lw	a5,-68(s0)
     738:	00078593          	mv	a1,a5
     73c:	fcc42503          	lw	a0,-52(s0)
     740:	eadff0ef          	jal	5ec <round_function>
     744:	fca42823          	sw	a0,-48(s0)
    unsigned int new_right = left ^ f_output;
     748:	fc842703          	lw	a4,-56(s0)
     74c:	fd042783          	lw	a5,-48(s0)
     750:	00f747b3          	xor	a5,a4,a5
     754:	fcf42a23          	sw	a5,-44(s0)
    unsigned int new_left = right;
     758:	fcc42783          	lw	a5,-52(s0)
     75c:	fcf42c23          	sw	a5,-40(s0)
    
    // Round 2 (using Key 2)
    f_output = round_function(new_right, key2_8bit);
     760:	fc042783          	lw	a5,-64(s0)
     764:	00078593          	mv	a1,a5
     768:	fd442503          	lw	a0,-44(s0)
     76c:	e81ff0ef          	jal	5ec <round_function>
     770:	fca42823          	sw	a0,-48(s0)
    unsigned int final_left = new_left ^ f_output;
     774:	fd842703          	lw	a4,-40(s0)
     778:	fd042783          	lw	a5,-48(s0)
     77c:	00f747b3          	xor	a5,a4,a5
     780:	fcf42e23          	sw	a5,-36(s0)
    unsigned int final_right = new_right;
     784:	fd442783          	lw	a5,-44(s0)
     788:	fef42023          	sw	a5,-32(s0)
    
    // Combine halves
    unsigned int combined = (final_left << 4) | final_right;
     78c:	fdc42783          	lw	a5,-36(s0)
     790:	00479793          	sll	a5,a5,0x4
     794:	fe042703          	lw	a4,-32(s0)
     798:	00f767b3          	or	a5,a4,a5
     79c:	fef42223          	sw	a5,-28(s0)
    
    // Invert Initial Permutation
    unsigned int encrypted = permute(combined, IP_INV, 8, 8);
     7a0:	00800693          	li	a3,8
     7a4:	00800613          	li	a2,8
     7a8:	000167b7          	lui	a5,0x16
     7ac:	ed878593          	add	a1,a5,-296 # 15ed8 <IP_INV>
     7b0:	fe442503          	lw	a0,-28(s0)
     7b4:	b61ff0ef          	jal	314 <permute>
     7b8:	fea42423          	sw	a0,-24(s0)
	
    return encrypted;
     7bc:	fe842783          	lw	a5,-24(s0)
     7c0:	00078713          	mv	a4,a5
}
     7c4:	0001a7b7          	lui	a5,0x1a
     7c8:	fec42683          	lw	a3,-20(s0)
     7cc:	ba07a783          	lw	a5,-1120(a5) # 19ba0 <__stack_chk_guard>
     7d0:	00f6c7b3          	xor	a5,a3,a5
     7d4:	00000693          	li	a3,0
     7d8:	00078463          	beqz	a5,7e0 <encrypt+0x124>
     7dc:	249020ef          	jal	3224 <__stack_chk_fail>
     7e0:	00070513          	mv	a0,a4
     7e4:	05c12083          	lw	ra,92(sp)
     7e8:	05812403          	lw	s0,88(sp)
     7ec:	06010113          	add	sp,sp,96
     7f0:	00008067          	ret

000007f4 <decrypt>:

unsigned int decrypt(unsigned int encrypted, unsigned int key_10bit)
{
     7f4:	fa010113          	add	sp,sp,-96
     7f8:	04112e23          	sw	ra,92(sp)
     7fc:	04812c23          	sw	s0,88(sp)
     800:	06010413          	add	s0,sp,96
     804:	faa42623          	sw	a0,-84(s0)
     808:	fab42423          	sw	a1,-88(s0)
     80c:	0001a7b7          	lui	a5,0x1a
     810:	ba07a703          	lw	a4,-1120(a5) # 19ba0 <__stack_chk_guard>
     814:	fee42623          	sw	a4,-20(s0)
     818:	00000713          	li	a4,0
    unsigned int key1_8bit, key2_8bit;
    
    // Generate subkeys
    generate_keys(key_10bit, &key1_8bit, &key2_8bit);
     81c:	fc040713          	add	a4,s0,-64
     820:	fbc40793          	add	a5,s0,-68
     824:	00070613          	mv	a2,a4
     828:	00078593          	mv	a1,a5
     82c:	fa842503          	lw	a0,-88(s0)
     830:	c95ff0ef          	jal	4c4 <generate_keys>
    
    // Initial Permutation
    unsigned int ip_output = permute(encrypted, IP, 8, 8);
     834:	00800693          	li	a3,8
     838:	00800613          	li	a2,8
     83c:	000167b7          	lui	a5,0x16
     840:	eb878593          	add	a1,a5,-328 # 15eb8 <IP>
     844:	fac42503          	lw	a0,-84(s0)
     848:	acdff0ef          	jal	314 <permute>
     84c:	fca42223          	sw	a0,-60(s0)
    
    // Split into halves
    unsigned int left = (ip_output >> 4) & 0x0F;
     850:	fc442783          	lw	a5,-60(s0)
     854:	0047d793          	srl	a5,a5,0x4
     858:	00f7f793          	and	a5,a5,15
     85c:	fcf42423          	sw	a5,-56(s0)
    unsigned int right = ip_output & 0x0F;
     860:	fc442783          	lw	a5,-60(s0)
     864:	00f7f793          	and	a5,a5,15
     868:	fcf42623          	sw	a5,-52(s0)
    
    // Round 1 with Key 2 (reversed order)
    unsigned int f_output = round_function(right, key2_8bit);
     86c:	fc042783          	lw	a5,-64(s0)
     870:	00078593          	mv	a1,a5
     874:	fcc42503          	lw	a0,-52(s0)
     878:	d75ff0ef          	jal	5ec <round_function>
     87c:	fca42823          	sw	a0,-48(s0)
    unsigned int new_right = left ^ f_output;
     880:	fc842703          	lw	a4,-56(s0)
     884:	fd042783          	lw	a5,-48(s0)
     888:	00f747b3          	xor	a5,a4,a5
     88c:	fcf42a23          	sw	a5,-44(s0)
    unsigned int new_left = right;
     890:	fcc42783          	lw	a5,-52(s0)
     894:	fcf42c23          	sw	a5,-40(s0)
    
    // Round 2 with Key 1 (reversed order)
    f_output = round_function(new_right, key1_8bit);
     898:	fbc42783          	lw	a5,-68(s0)
     89c:	00078593          	mv	a1,a5
     8a0:	fd442503          	lw	a0,-44(s0)
     8a4:	d49ff0ef          	jal	5ec <round_function>
     8a8:	fca42823          	sw	a0,-48(s0)
    unsigned int final_left = new_left ^ f_output;
     8ac:	fd842703          	lw	a4,-40(s0)
     8b0:	fd042783          	lw	a5,-48(s0)
     8b4:	00f747b3          	xor	a5,a4,a5
     8b8:	fcf42e23          	sw	a5,-36(s0)
    unsigned int final_right = new_right;
     8bc:	fd442783          	lw	a5,-44(s0)
     8c0:	fef42023          	sw	a5,-32(s0)
    
    // Combine and apply inverse IP
    unsigned int combined = (final_left << 4) | final_right;
     8c4:	fdc42783          	lw	a5,-36(s0)
     8c8:	00479793          	sll	a5,a5,0x4
     8cc:	fe042703          	lw	a4,-32(s0)
     8d0:	00f767b3          	or	a5,a4,a5
     8d4:	fef42223          	sw	a5,-28(s0)
    unsigned int output = permute(combined, IP_INV, 8, 8);
     8d8:	00800693          	li	a3,8
     8dc:	00800613          	li	a2,8
     8e0:	000167b7          	lui	a5,0x16
     8e4:	ed878593          	add	a1,a5,-296 # 15ed8 <IP_INV>
     8e8:	fe442503          	lw	a0,-28(s0)
     8ec:	a29ff0ef          	jal	314 <permute>
     8f0:	fea42423          	sw	a0,-24(s0)
    
    return output;
     8f4:	fe842783          	lw	a5,-24(s0)
     8f8:	00078713          	mv	a4,a5
}
     8fc:	0001a7b7          	lui	a5,0x1a
     900:	fec42683          	lw	a3,-20(s0)
     904:	ba07a783          	lw	a5,-1120(a5) # 19ba0 <__stack_chk_guard>
     908:	00f6c7b3          	xor	a5,a3,a5
     90c:	00000693          	li	a3,0
     910:	00078463          	beqz	a5,918 <decrypt+0x124>
     914:	111020ef          	jal	3224 <__stack_chk_fail>
     918:	00070513          	mv	a0,a4
     91c:	05c12083          	lw	ra,92(sp)
     920:	05812403          	lw	s0,88(sp)
     924:	06010113          	add	sp,sp,96
     928:	00008067          	ret

0000092c <print_bits>:

void print_bits(unsigned int value, int length)
{
     92c:	fd010113          	add	sp,sp,-48
     930:	02112623          	sw	ra,44(sp)
     934:	02812423          	sw	s0,40(sp)
     938:	03010413          	add	s0,sp,48
     93c:	fca42e23          	sw	a0,-36(s0)
     940:	fcb42c23          	sw	a1,-40(s0)
    for(int i = length-1; i >= 0; i--)
     944:	fd842783          	lw	a5,-40(s0)
     948:	fff78793          	add	a5,a5,-1
     94c:	fef42623          	sw	a5,-20(s0)
     950:	0300006f          	j	980 <print_bits+0x54>
    {
        printf("%d", (value >> i) & 1);
     954:	fec42783          	lw	a5,-20(s0)
     958:	fdc42703          	lw	a4,-36(s0)
     95c:	00f757b3          	srl	a5,a4,a5
     960:	0017f793          	and	a5,a5,1
     964:	00078593          	mv	a1,a5
     968:	000167b7          	lui	a5,0x16
     96c:	fa878513          	add	a0,a5,-88 # 15fa8 <S1+0x40>
     970:	301030ef          	jal	4470 <printf>
    for(int i = length-1; i >= 0; i--)
     974:	fec42783          	lw	a5,-20(s0)
     978:	fff78793          	add	a5,a5,-1
     97c:	fef42623          	sw	a5,-20(s0)
     980:	fec42783          	lw	a5,-20(s0)
     984:	fc07d8e3          	bgez	a5,954 <print_bits+0x28>
    }
}
     988:	00000013          	nop
     98c:	00000013          	nop
     990:	02c12083          	lw	ra,44(sp)
     994:	02812403          	lw	s0,40(sp)
     998:	03010113          	add	sp,sp,48
     99c:	00008067          	ret

000009a0 <main>:

int main (void)
{
     9a0:	fb010113          	add	sp,sp,-80
     9a4:	04112623          	sw	ra,76(sp)
     9a8:	04812423          	sw	s0,72(sp)
     9ac:	05010413          	add	s0,sp,80
    printf("Program Started...\r\n");
     9b0:	000167b7          	lui	a5,0x16
     9b4:	fac78513          	add	a0,a5,-84 # 15fac <S1+0x44>
     9b8:	4c5030ef          	jal	467c <puts>
	unsigned int encrypted;
	unsigned int output;
	
	while(1)
	{
		printf("Enter 10 bit Key.\r\n");
     9bc:	000167b7          	lui	a5,0x16
     9c0:	fc078513          	add	a0,a5,-64 # 15fc0 <S1+0x58>
     9c4:	4b9030ef          	jal	467c <puts>

		while (buttons & 0x01)
     9c8:	01c0006f          	j	9e4 <main+0x44>
		{
			buttons = IORD_ALTERA_AVALON_PIO_DATA(KEYS_BASE);
     9cc:	000507b7          	lui	a5,0x50
     9d0:	05078793          	add	a5,a5,80 # 50050 <__alt_data_end+0x1e050>
     9d4:	0007a783          	lw	a5,0(a5)
     9d8:	fef42623          	sw	a5,-20(s0)
     9dc:	fec42783          	lw	a5,-20(s0)
     9e0:	faf42e23          	sw	a5,-68(s0)
		while (buttons & 0x01)
     9e4:	fbc42783          	lw	a5,-68(s0)
     9e8:	0017f793          	and	a5,a5,1
     9ec:	fe0790e3          	bnez	a5,9cc <main+0x2c>
		}
		while (!(buttons & 0x01))
     9f0:	01c0006f          	j	a0c <main+0x6c>
		{
			buttons = IORD_ALTERA_AVALON_PIO_DATA(KEYS_BASE);
     9f4:	000507b7          	lui	a5,0x50
     9f8:	05078793          	add	a5,a5,80 # 50050 <__alt_data_end+0x1e050>
     9fc:	0007a783          	lw	a5,0(a5)
     a00:	fef42423          	sw	a5,-24(s0)
     a04:	fe842783          	lw	a5,-24(s0)
     a08:	faf42e23          	sw	a5,-68(s0)
		while (!(buttons & 0x01))
     a0c:	fbc42783          	lw	a5,-68(s0)
     a10:	0017f793          	and	a5,a5,1
     a14:	fe0780e3          	beqz	a5,9f4 <main+0x54>
		}

		buttons = IORD_ALTERA_AVALON_PIO_DATA(KEYS_BASE);
     a18:	000507b7          	lui	a5,0x50
     a1c:	05078793          	add	a5,a5,80 # 50050 <__alt_data_end+0x1e050>
     a20:	0007a783          	lw	a5,0(a5)
     a24:	fcf42023          	sw	a5,-64(s0)
     a28:	fc042783          	lw	a5,-64(s0)
     a2c:	faf42e23          	sw	a5,-68(s0)
		key = IORD_ALTERA_AVALON_PIO_DATA(SWITCHES_BASE);
     a30:	000507b7          	lui	a5,0x50
     a34:	04078793          	add	a5,a5,64 # 50040 <__alt_data_end+0x1e040>
     a38:	0007a783          	lw	a5,0(a5)
     a3c:	fcf42223          	sw	a5,-60(s0)
     a40:	fc442783          	lw	a5,-60(s0)
     a44:	fcf42423          	sw	a5,-56(s0)

		printf("Key: ");
     a48:	000167b7          	lui	a5,0x16
     a4c:	fd478513          	add	a0,a5,-44 # 15fd4 <S1+0x6c>
     a50:	221030ef          	jal	4470 <printf>
		print_bits(key, 10);
     a54:	00a00593          	li	a1,10
     a58:	fc842503          	lw	a0,-56(s0)
     a5c:	ed1ff0ef          	jal	92c <print_bits>
		printf("\r\n");
     a60:	000167b7          	lui	a5,0x16
     a64:	fdc78513          	add	a0,a5,-36 # 15fdc <S1+0x74>
     a68:	415030ef          	jal	467c <puts>
		

		printf("Enter 8 bit input.\r\n");
     a6c:	000167b7          	lui	a5,0x16
     a70:	fe078513          	add	a0,a5,-32 # 15fe0 <S1+0x78>
     a74:	409030ef          	jal	467c <puts>

		while (buttons & 0x01)
     a78:	01c0006f          	j	a94 <main+0xf4>
		{
			buttons = IORD_ALTERA_AVALON_PIO_DATA(KEYS_BASE);
     a7c:	000507b7          	lui	a5,0x50
     a80:	05078793          	add	a5,a5,80 # 50050 <__alt_data_end+0x1e050>
     a84:	0007a783          	lw	a5,0(a5)
     a88:	fef42223          	sw	a5,-28(s0)
     a8c:	fe442783          	lw	a5,-28(s0)
     a90:	faf42e23          	sw	a5,-68(s0)
		while (buttons & 0x01)
     a94:	fbc42783          	lw	a5,-68(s0)
     a98:	0017f793          	and	a5,a5,1
     a9c:	fe0790e3          	bnez	a5,a7c <main+0xdc>
		}
		while (!(buttons & 0x01))
     aa0:	01c0006f          	j	abc <main+0x11c>
		{
			buttons = IORD_ALTERA_AVALON_PIO_DATA(KEYS_BASE);
     aa4:	000507b7          	lui	a5,0x50
     aa8:	05078793          	add	a5,a5,80 # 50050 <__alt_data_end+0x1e050>
     aac:	0007a783          	lw	a5,0(a5)
     ab0:	fef42023          	sw	a5,-32(s0)
     ab4:	fe042783          	lw	a5,-32(s0)
     ab8:	faf42e23          	sw	a5,-68(s0)
		while (!(buttons & 0x01))
     abc:	fbc42783          	lw	a5,-68(s0)
     ac0:	0017f793          	and	a5,a5,1
     ac4:	fe0780e3          	beqz	a5,aa4 <main+0x104>
		}

		input = IORD_ALTERA_AVALON_PIO_DATA(SWITCHES_BASE); // Read 10 bits
     ac8:	000507b7          	lui	a5,0x50
     acc:	04078793          	add	a5,a5,64 # 50040 <__alt_data_end+0x1e040>
     ad0:	0007a783          	lw	a5,0(a5)
     ad4:	fcf42623          	sw	a5,-52(s0)
     ad8:	fcc42783          	lw	a5,-52(s0)
     adc:	fcf42823          	sw	a5,-48(s0)
		input = input & 0xFF;  // Mask to 8 bits
     ae0:	fd042783          	lw	a5,-48(s0)
     ae4:	0ff7f793          	zext.b	a5,a5
     ae8:	fcf42823          	sw	a5,-48(s0)
		
		printf("Input: ");
     aec:	000167b7          	lui	a5,0x16
     af0:	ff478513          	add	a0,a5,-12 # 15ff4 <S1+0x8c>
     af4:	17d030ef          	jal	4470 <printf>
		print_bits(input, 8);
     af8:	00800593          	li	a1,8
     afc:	fd042503          	lw	a0,-48(s0)
     b00:	e2dff0ef          	jal	92c <print_bits>
		printf("\r\n");
     b04:	000167b7          	lui	a5,0x16
     b08:	fdc78513          	add	a0,a5,-36 # 15fdc <S1+0x74>
     b0c:	371030ef          	jal	467c <puts>


		printf("Encrypting...\r\n");
     b10:	000167b7          	lui	a5,0x16
     b14:	ffc78513          	add	a0,a5,-4 # 15ffc <S1+0x94>
     b18:	365030ef          	jal	467c <puts>
		encrypted = encrypt(input, key);
     b1c:	fc842583          	lw	a1,-56(s0)
     b20:	fd042503          	lw	a0,-48(s0)
     b24:	b99ff0ef          	jal	6bc <encrypt>
     b28:	fca42a23          	sw	a0,-44(s0)
		
		printf("Encrypted value: ");
     b2c:	000167b7          	lui	a5,0x16
     b30:	00c78513          	add	a0,a5,12 # 1600c <S1+0xa4>
     b34:	13d030ef          	jal	4470 <printf>
		print_bits(encrypted, 8);
     b38:	00800593          	li	a1,8
     b3c:	fd442503          	lw	a0,-44(s0)
     b40:	dedff0ef          	jal	92c <print_bits>
		printf("\r\n");
     b44:	000167b7          	lui	a5,0x16
     b48:	fdc78513          	add	a0,a5,-36 # 15fdc <S1+0x74>
     b4c:	331030ef          	jal	467c <puts>

		IOWR_ALTERA_AVALON_PIO_DATA(LEDS_BASE, (0 | encrypted));
     b50:	fd442783          	lw	a5,-44(s0)
     b54:	fcf42c23          	sw	a5,-40(s0)
     b58:	000507b7          	lui	a5,0x50
     b5c:	06078793          	add	a5,a5,96 # 50060 <__alt_data_end+0x1e060>
     b60:	fd842703          	lw	a4,-40(s0)
     b64:	00e7a023          	sw	a4,0(a5)


		printf("Decrypting...\r\n");
     b68:	000167b7          	lui	a5,0x16
     b6c:	02078513          	add	a0,a5,32 # 16020 <S1+0xb8>
     b70:	30d030ef          	jal	467c <puts>
		output = decrypt(encrypted, key);
     b74:	fc842583          	lw	a1,-56(s0)
     b78:	fd442503          	lw	a0,-44(s0)
     b7c:	c79ff0ef          	jal	7f4 <decrypt>
     b80:	fca42e23          	sw	a0,-36(s0)
		
		printf("Decrypting output: ");
     b84:	000167b7          	lui	a5,0x16
     b88:	03078513          	add	a0,a5,48 # 16030 <S1+0xc8>
     b8c:	0e5030ef          	jal	4470 <printf>
		print_bits(output, 8);
     b90:	00800593          	li	a1,8
     b94:	fdc42503          	lw	a0,-36(s0)
     b98:	d95ff0ef          	jal	92c <print_bits>
		printf("\r\n\r\n");
     b9c:	000167b7          	lui	a5,0x16
     ba0:	04478513          	add	a0,a5,68 # 16044 <S1+0xdc>
     ba4:	2d9030ef          	jal	467c <puts>
		printf("Enter 10 bit Key.\r\n");
     ba8:	e15ff06f          	j	9bc <main+0x1c>

00000bac <_start>:
    .type _start, @function
_start:
#if ALT_CPU_HAS_CSR_SUPPORT
    /* assume that we are in machine mode on startup */
    /* setup trap to catch anything that goes wrong early in the boot process */
    la t0, trap_vector
     bac:	fffff297          	auipc	t0,0xfffff
     bb0:	47428293          	add	t0,t0,1140 # 20 <trap_vector>
    csrw mtvec, t0
     bb4:	30529073          	csrw	mtvec,t0

    /* disable all interrupt */
    li t0, 0x88
     bb8:	08800293          	li	t0,136
    csrc mstatus, t0
     bbc:	3002b073          	csrc	mstatus,t0
    csrw mie, zero
     bc0:	30401073          	csrw	mie,zero
    csrw mip, zero
     bc4:	34401073          	csrw	mip,zero
#endif /* Initialize Data Cache */
#endif /* ALT_SIM_OPTIMIZE */

    .option push
    .option norelax
    la gp, __global_pointer$
     bc8:	00018197          	auipc	gp,0x18
     bcc:	e9018193          	add	gp,gp,-368 # 18a58 <__global_pointer$>

    /*
     * Now that the caches are initialized, set up the stack pointer and global pointer.
     * The values provided by the linker are assumed to be correctly aligned.
     */
    la sp, __alt_stack_pointer
     bd0:	00031117          	auipc	sp,0x31
     bd4:	43010113          	add	sp,sp,1072 # 32000 <__alt_data_end>
    /* Log that the BSS is about to be cleared. */
#ifdef ALT_LOG_ENABLE
    ALT_LOG_PUTS(alt_log_msg_bss)
#endif /* ALT_LOG_ENABLE */

    la t1, __bss_start
     bd8:	00019317          	auipc	t1,0x19
     bdc:	f9030313          	add	t1,t1,-112 # 19b68 <alt_niosv_software_interrupt_handler>
    la t2, __bss_end
     be0:	00019397          	auipc	t2,0x19
     be4:	36838393          	add	t2,t2,872 # 19f48 <__alt_heap_start>
0:
    sw zero, (t1)
     be8:	00032023          	sw	zero,0(t1)
    addi t1, t1, 4
     bec:	00430313          	add	t1,t1,4
    bltu t1, t2, 0b
     bf0:	fe736ce3          	bltu	t1,t2,be8 <_start+0x3c>
/*
 * The alt_load() facility is normally used when there is no bootloader.
 * It copies some sections into RAM so it acts like a mini-bootloader.
 */
#ifdef CALL_ALT_LOAD
    call alt_load
     bf4:	0c8000ef          	jal	cbc <alt_load>
 */
#ifndef ALT_SIM_OPTIMIZE
.globl __tbss_start
.globl __tbss_end

    la t1, __tbss_start
     bf8:	00016317          	auipc	t1,0x16
     bfc:	db830313          	add	t1,t1,-584 # 169b0 <DEBUG>
    la t2, __tbss_end
     c00:	00016397          	auipc	t2,0x16
     c04:	db038393          	add	t2,t2,-592 # 169b0 <DEBUG>
    
    // Check if we need to skip this (if .tbss is empty)
    bgeu t1, t2, 1f
     c08:	00737863          	bgeu	t1,t2,c18 <_start+0x6c>
0:
    sw zero, (t1)
     c0c:	00032023          	sw	zero,0(t1)
    addi t1, t1, 4
     c10:	00430313          	add	t1,t1,4
    bltu t1, t2, 0b
     c14:	fe736ce3          	bltu	t1,t2,c0c <_start+0x60>
// Copy tdata to tdata golden source location
.globl __tdata_start
.globl __tdata_end
.globl __tdata_source

    la t0, __tdata_start
     c18:	00016297          	auipc	t0,0x16
     c1c:	d9828293          	add	t0,t0,-616 # 169b0 <DEBUG>
    la t1, __tdata_end
     c20:	00016317          	auipc	t1,0x16
     c24:	d9030313          	add	t1,t1,-624 # 169b0 <DEBUG>
    la t2, __tdata_source
     c28:	00016397          	auipc	t2,0x16
     c2c:	d8838393          	add	t2,t2,-632 # 169b0 <DEBUG>

    // Check if we need to skip this (if .tdata is empty)
    bgeu t0, t1, 1f
     c30:	0062fc63          	bgeu	t0,t1,c48 <_start+0x9c>
0:
    lw s1, (t0)
     c34:	0002a483          	lw	s1,0(t0)
    sw s1, (t2)
     c38:	0093a023          	sw	s1,0(t2)
    addi t0, t0, 4
     c3c:	00428293          	add	t0,t0,4
    addi t2, t2, 4
     c40:	00438393          	add	t2,t2,4
    bltu t0, t1, 0b
     c44:	fe62e8e3          	bltu	t0,t1,c34 <_start+0x88>
1:

// Assign thread pointer register (tp) to main thread tls base
.globl __tls_base
    la tp, __tls_base
     c48:	00016217          	auipc	tp,0x16
     c4c:	d6820213          	add	tp,tp,-664 # 169b0 <DEBUG>
#ifdef ALT_LOG_ENABLE
    ALT_LOG_PUTS(alt_log_msg_alt_main)
#endif /* ALT_LOG_ENABLE */

    /* Call the C entry point. It should never return. */
    call alt_main
     c50:	0e0000ef          	jal	d30 <alt_main>

00000c54 <alt_after_alt_main>:

    /* Wait in infinite loop in case alt_main does return. */
alt_after_alt_main:
    j alt_after_alt_main
     c54:	0000006f          	j	c54 <alt_after_alt_main>

00000c58 <alt_load_section>:
     c58:	fe010113          	add	sp,sp,-32
     c5c:	00812e23          	sw	s0,28(sp)
 */  

void alt_load (void)
{
  /* 
   * Copy the .rwdata section. 
     c60:	02010413          	add	s0,sp,32
     c64:	fea42623          	sw	a0,-20(s0)
     c68:	feb42423          	sw	a1,-24(s0)
     c6c:	fec42223          	sw	a2,-28(s0)
   */
     c70:	fe842703          	lw	a4,-24(s0)
     c74:	fec42783          	lw	a5,-20(s0)
     c78:	02f70a63          	beq	a4,a5,cac <alt_load_section+0x54>

  alt_load_section (&__flash_rwdata_start, 
     c7c:	0240006f          	j	ca0 <alt_load_section+0x48>
		               &__ram_rwdata_start,
		               &__ram_rwdata_end);
     c80:	fec42703          	lw	a4,-20(s0)
     c84:	00470793          	add	a5,a4,4
     c88:	fef42623          	sw	a5,-20(s0)
     c8c:	fe842783          	lw	a5,-24(s0)
     c90:	00478693          	add	a3,a5,4
     c94:	fed42423          	sw	a3,-24(s0)
     c98:	00072703          	lw	a4,0(a4)
     c9c:	00e7a023          	sw	a4,0(a5)
  alt_load_section (&__flash_rwdata_start, 
     ca0:	fe842703          	lw	a4,-24(s0)
     ca4:	fe442783          	lw	a5,-28(s0)
     ca8:	fcf71ce3          	bne	a4,a5,c80 <alt_load_section+0x28>

  /*
   * Copy the exception handler.
     cac:	00000013          	nop
     cb0:	01c12403          	lw	s0,28(sp)
     cb4:	02010113          	add	sp,sp,32
     cb8:	00008067          	ret

00000cbc <alt_load>:
{
     cbc:	ff010113          	add	sp,sp,-16
     cc0:	00112623          	sw	ra,12(sp)
     cc4:	00812423          	sw	s0,8(sp)
     cc8:	01010413          	add	s0,sp,16
  alt_load_section (&__flash_rwdata_start, 
     ccc:	000187b7          	lui	a5,0x18
     cd0:	28c78613          	add	a2,a5,652 # 1828c <__flash_rwdata_start>
     cd4:	000177b7          	lui	a5,0x17
     cd8:	9b078593          	add	a1,a5,-1616 # 169b0 <DEBUG>
     cdc:	000187b7          	lui	a5,0x18
     ce0:	28c78513          	add	a0,a5,652 # 1828c <__flash_rwdata_start>
     ce4:	f75ff0ef          	jal	c58 <alt_load_section>
   */

  alt_load_section (&__flash_exceptions_start, 
     ce8:	31400613          	li	a2,788
     cec:	02000593          	li	a1,32
     cf0:	02000513          	li	a0,32
     cf4:	f65ff0ef          	jal	c58 <alt_load_section>

  /*
   * Copy the .rodata section.
   */

  alt_load_section (&__flash_rodata_start, 
     cf8:	000177b7          	lui	a5,0x17
     cfc:	9b078613          	add	a2,a5,-1616 # 169b0 <DEBUG>
     d00:	000167b7          	lui	a5,0x16
     d04:	e7078593          	add	a1,a5,-400 # 15e70 <P10>
     d08:	000167b7          	lui	a5,0x16
     d0c:	e7078513          	add	a0,a5,-400 # 15e70 <P10>
     d10:	f49ff0ef          	jal	c58 <alt_load_section>
  
  /*
   * Now ensure that the caches are in synch.
   */
  
  alt_dcache_flush_all();
     d14:	5cd000ef          	jal	1ae0 <alt_dcache_flush_all>
  alt_icache_flush_all();
     d18:	7f9000ef          	jal	1d10 <alt_icache_flush_all>
}
     d1c:	00000013          	nop
     d20:	00c12083          	lw	ra,12(sp)
     d24:	00812403          	lw	s0,8(sp)
     d28:	01010113          	add	sp,sp,16
     d2c:	00008067          	ret

00000d30 <alt_main>:
 * devices/filesystems/components in the system; and call the entry point for
 * the users application, i.e. main().
 */

void alt_main (void)
{
     d30:	fe010113          	add	sp,sp,-32
     d34:	00112e23          	sw	ra,28(sp)
     d38:	00812c23          	sw	s0,24(sp)
     d3c:	02010413          	add	s0,sp,32
#endif

  /* ALT LOG - please see HAL/sys/alt_log_printf.h for details */
  ALT_LOG_PRINT_BOOT("[alt_main.c] Entering alt_main, calling alt_irq_init.\r\n");
  /* Initialize the interrupt controller. */
  alt_irq_init (NULL);
     d40:	00000513          	li	a0,0
     d44:	074000ef          	jal	db8 <alt_irq_init>

  /* Initialize the operating system */
  ALT_LOG_PRINT_BOOT("[alt_main.c] Done alt_irq_init, calling alt_os_init.\r\n");
  ALT_OS_INIT();
     d48:	00000013          	nop
  ALT_LOG_PRINT_BOOT("[alt_main.c] Done OS Init, calling alt_sem_create.\r\n");
  ALT_SEM_CREATE (&alt_fd_list_lock, 1);

  /* Initialize the device drivers/software components. */
  ALT_LOG_PRINT_BOOT("[alt_main.c] Calling alt_sys_init.\r\n");
  alt_sys_init();
     d4c:	0a4000ef          	jal	df0 <alt_sys_init>
   * devices be present (not equal to /dev/null) and if direct drivers
   * aren't being used.
   */

    ALT_LOG_PRINT_BOOT("[alt_main.c] Redirecting IO.\r\n");
    alt_io_redirect(ALT_STDOUT, ALT_STDIN, ALT_STDERR);
     d50:	000167b7          	lui	a5,0x16
     d54:	04878613          	add	a2,a5,72 # 16048 <S1+0xe0>
     d58:	000167b7          	lui	a5,0x16
     d5c:	04878593          	add	a1,a5,72 # 16048 <S1+0xe0>
     d60:	000167b7          	lui	a5,0x16
     d64:	04878513          	add	a0,a5,72 # 16048 <S1+0xe0>
     d68:	270010ef          	jal	1fd8 <alt_io_redirect>
  /* 
   * Call the C++ constructors 
   */

  ALT_LOG_PRINT_BOOT("[alt_main.c] Calling C++ constructors.\r\n");
  _do_ctors ();
     d6c:	6e5000ef          	jal	1c50 <_do_ctors>
   * redefined as _exit()). This is in the interest of reducing code footprint,
   * in that the atexit() overhead is removed when it's not needed.
   */

  ALT_LOG_PRINT_BOOT("[alt_main.c] Calling atexit.\r\n");
  atexit (_do_dtors);
     d70:	000027b7          	lui	a5,0x2
     d74:	cb078513          	add	a0,a5,-848 # 1cb0 <_do_dtors>
     d78:	210030ef          	jal	3f88 <atexit>
  ALT_LOG_PRINT_BOOT("[alt_main.c] Calling main.\r\n");

#ifdef ALT_NO_EXIT
  main (alt_argc, alt_argv, alt_envp);
#else
  result = main (alt_argc, alt_argv, alt_envp);
     d7c:	0001a7b7          	lui	a5,0x1a
     d80:	b707a703          	lw	a4,-1168(a5) # 19b70 <alt_argc>
     d84:	0001a7b7          	lui	a5,0x1a
     d88:	b747a683          	lw	a3,-1164(a5) # 19b74 <alt_argv>
     d8c:	0001a7b7          	lui	a5,0x1a
     d90:	b787a783          	lw	a5,-1160(a5) # 19b78 <alt_envp>
     d94:	00078613          	mv	a2,a5
     d98:	00068593          	mv	a1,a3
     d9c:	00070513          	mv	a0,a4
     da0:	c01ff0ef          	jal	9a0 <main>
     da4:	fea42623          	sw	a0,-20(s0)
  close(STDOUT_FILENO);
     da8:	00100513          	li	a0,1
     dac:	27c030ef          	jal	4028 <close>
  exit (result);
     db0:	fec42503          	lw	a0,-20(s0)
     db4:	115010ef          	jal	26c8 <exit>

00000db8 <alt_irq_init>:
 * The "base" parameter is ignored and only
 * present for backwards-compatibility.
 */

void alt_irq_init ( const void* base )
{
     db8:	fe010113          	add	sp,sp,-32
     dbc:	00112e23          	sw	ra,28(sp)
     dc0:	00812c23          	sw	s0,24(sp)
     dc4:	02010413          	add	s0,sp,32
     dc8:	fea42623          	sw	a0,-20(s0)
    INTEL_NIOSV_M_IRQ_INIT ( HW2, HW2);
     dcc:	56c010ef          	jal	2338 <intel_niosv_irq_init>
    NIOSV_SET_CSR(NIOSV_MSTATUS_CSR, NIOSV_MSTATUS_MIE_MASK);
     dd0:	00800793          	li	a5,8
     dd4:	3007a073          	csrs	mstatus,a5
}
     dd8:	00000013          	nop
    alt_irq_cpu_enable_interrupts();
}
     ddc:	00000013          	nop
     de0:	01c12083          	lw	ra,28(sp)
     de4:	01812403          	lw	s0,24(sp)
     de8:	02010113          	add	sp,sp,32
     dec:	00008067          	ret

00000df0 <alt_sys_init>:
 * Initialize the non-interrupt controller devices.
 * Called after alt_irq_init().
 */

void alt_sys_init( void )
{
     df0:	fe010113          	add	sp,sp,-32
     df4:	00112e23          	sw	ra,28(sp)
     df8:	00812c23          	sw	s0,24(sp)
     dfc:	02010413          	add	s0,sp,32
    ALTERA_AVALON_JTAG_UART_INIT ( DEBUG, DEBUG);
     e00:	00000613          	li	a2,0
     e04:	00000593          	li	a1,0
     e08:	000177b7          	lui	a5,0x17
     e0c:	9d878513          	add	a0,a5,-1576 # 169d8 <DEBUG+0x28>
     e10:	1e0000ef          	jal	ff0 <altera_avalon_jtag_uart_init>
     e14:	000177b7          	lui	a5,0x17
     e18:	9b078513          	add	a0,a5,-1616 # 169b0 <DEBUG>
     e1c:	50d000ef          	jal	1b28 <alt_dev_reg>
     e20:	3e800793          	li	a5,1000
     e24:	fef42623          	sw	a5,-20(s0)
 * in order to initialise the value of the clock frequency.
 */

static ALT_INLINE int ALT_ALWAYS_INLINE alt_sysclk_init (alt_u32 nticks)
{
  if (! _alt_tick_rate)
     e28:	0001a7b7          	lui	a5,0x1a
     e2c:	b807a783          	lw	a5,-1152(a5) # 19b80 <_alt_tick_rate>
     e30:	00079a63          	bnez	a5,e44 <alt_sys_init+0x54>
  {
    _alt_tick_rate = nticks;
     e34:	0001a7b7          	lui	a5,0x1a
     e38:	fec42703          	lw	a4,-20(s0)
     e3c:	b8e7a023          	sw	a4,-1152(a5) # 19b80 <_alt_tick_rate>
    return 0;
     e40:	0080006f          	j	e48 <alt_sys_init+0x58>
  }
  else
  {
    return -1;
     e44:	00000013          	nop
     e48:	000027b7          	lui	a5,0x2
     e4c:	5a078793          	add	a5,a5,1440 # 25a0 <alt_niosv_timer_sc_isr>
     e50:	fef42423          	sw	a5,-24(s0)
alt_u64 alt_niosv_mtimecmp_get();
void alt_niosv_mtimecmp_interrupt_init();
extern alt_niosv_timer_isr_t alt_niosv_timer_interrupt_handler;

static ALT_INLINE void ALT_ALWAYS_INLINE alt_niosv_register_mtimecmp_interrupt_handle(alt_niosv_timer_isr_t handle) {
    alt_niosv_timer_interrupt_handler = handle;
     e54:	0001a7b7          	lui	a5,0x1a
     e58:	fe842703          	lw	a4,-24(s0)
     e5c:	b6e7a623          	sw	a4,-1172(a5) # 19b6c <alt_niosv_timer_interrupt_handler>
}
     e60:	00000013          	nop
    INTEL_NIOSV_M_INIT ( HW2, HW2);
     e64:	7e8010ef          	jal	264c <alt_niosv_mtimecmp_interrupt_init>
}
     e68:	00000013          	nop
     e6c:	01c12083          	lw	ra,28(sp)
     e70:	01812403          	lw	s0,24(sp)
     e74:	02010113          	add	sp,sp,32
     e78:	00008067          	ret

00000e7c <altera_avalon_jtag_uart_read_fd>:
 *
 */

int 
altera_avalon_jtag_uart_read_fd(alt_fd* fd, char* buffer, int space)
{
     e7c:	fd010113          	add	sp,sp,-48
     e80:	02112623          	sw	ra,44(sp)
     e84:	02812423          	sw	s0,40(sp)
     e88:	03010413          	add	s0,sp,48
     e8c:	fca42e23          	sw	a0,-36(s0)
     e90:	fcb42c23          	sw	a1,-40(s0)
     e94:	fcc42a23          	sw	a2,-44(s0)
    altera_avalon_jtag_uart_dev* dev = (altera_avalon_jtag_uart_dev*) fd->dev; 
     e98:	fdc42783          	lw	a5,-36(s0)
     e9c:	0007a783          	lw	a5,0(a5)
     ea0:	fef42623          	sw	a5,-20(s0)

    return altera_avalon_jtag_uart_read(&dev->state, buffer, space,
     ea4:	fec42783          	lw	a5,-20(s0)
     ea8:	02878713          	add	a4,a5,40
     eac:	fdc42783          	lw	a5,-36(s0)
     eb0:	0087a783          	lw	a5,8(a5)
     eb4:	00078693          	mv	a3,a5
     eb8:	fd442603          	lw	a2,-44(s0)
     ebc:	fd842583          	lw	a1,-40(s0)
     ec0:	00070513          	mv	a0,a4
     ec4:	64c000ef          	jal	1510 <altera_avalon_jtag_uart_read>
     ec8:	00050793          	mv	a5,a0
      fd->fd_flags);
}
     ecc:	00078513          	mv	a0,a5
     ed0:	02c12083          	lw	ra,44(sp)
     ed4:	02812403          	lw	s0,40(sp)
     ed8:	03010113          	add	sp,sp,48
     edc:	00008067          	ret

00000ee0 <altera_avalon_jtag_uart_write_fd>:

int 
altera_avalon_jtag_uart_write_fd(alt_fd* fd, const char* buffer, int space)
{
     ee0:	fd010113          	add	sp,sp,-48
     ee4:	02112623          	sw	ra,44(sp)
     ee8:	02812423          	sw	s0,40(sp)
     eec:	03010413          	add	s0,sp,48
     ef0:	fca42e23          	sw	a0,-36(s0)
     ef4:	fcb42c23          	sw	a1,-40(s0)
     ef8:	fcc42a23          	sw	a2,-44(s0)
    altera_avalon_jtag_uart_dev* dev = (altera_avalon_jtag_uart_dev*) fd->dev; 
     efc:	fdc42783          	lw	a5,-36(s0)
     f00:	0007a783          	lw	a5,0(a5)
     f04:	fef42623          	sw	a5,-20(s0)

    return altera_avalon_jtag_uart_write(&dev->state, buffer, space,
     f08:	fec42783          	lw	a5,-20(s0)
     f0c:	02878713          	add	a4,a5,40
     f10:	fdc42783          	lw	a5,-36(s0)
     f14:	0087a783          	lw	a5,8(a5)
     f18:	00078693          	mv	a3,a5
     f1c:	fd442603          	lw	a2,-44(s0)
     f20:	fd842583          	lw	a1,-40(s0)
     f24:	00070513          	mv	a0,a4
     f28:	015000ef          	jal	173c <altera_avalon_jtag_uart_write>
     f2c:	00050793          	mv	a5,a0
      fd->fd_flags);
}
     f30:	00078513          	mv	a0,a5
     f34:	02c12083          	lw	ra,44(sp)
     f38:	02812403          	lw	s0,40(sp)
     f3c:	03010113          	add	sp,sp,48
     f40:	00008067          	ret

00000f44 <altera_avalon_jtag_uart_close_fd>:

#ifndef ALTERA_AVALON_JTAG_UART_SMALL

int 
altera_avalon_jtag_uart_close_fd(alt_fd* fd)
{
     f44:	fd010113          	add	sp,sp,-48
     f48:	02112623          	sw	ra,44(sp)
     f4c:	02812423          	sw	s0,40(sp)
     f50:	03010413          	add	s0,sp,48
     f54:	fca42e23          	sw	a0,-36(s0)
    altera_avalon_jtag_uart_dev* dev = (altera_avalon_jtag_uart_dev*) fd->dev; 
     f58:	fdc42783          	lw	a5,-36(s0)
     f5c:	0007a783          	lw	a5,0(a5)
     f60:	fef42623          	sw	a5,-20(s0)

    return altera_avalon_jtag_uart_close(&dev->state, fd->fd_flags);
     f64:	fec42783          	lw	a5,-20(s0)
     f68:	02878713          	add	a4,a5,40
     f6c:	fdc42783          	lw	a5,-36(s0)
     f70:	0087a783          	lw	a5,8(a5)
     f74:	00078593          	mv	a1,a5
     f78:	00070513          	mv	a0,a4
     f7c:	428000ef          	jal	13a4 <altera_avalon_jtag_uart_close>
     f80:	00050793          	mv	a5,a0
}
     f84:	00078513          	mv	a0,a5
     f88:	02c12083          	lw	ra,44(sp)
     f8c:	02812403          	lw	s0,40(sp)
     f90:	03010113          	add	sp,sp,48
     f94:	00008067          	ret

00000f98 <altera_avalon_jtag_uart_ioctl_fd>:

int 
altera_avalon_jtag_uart_ioctl_fd(alt_fd* fd, int req, void* arg)
{
     f98:	fd010113          	add	sp,sp,-48
     f9c:	02112623          	sw	ra,44(sp)
     fa0:	02812423          	sw	s0,40(sp)
     fa4:	03010413          	add	s0,sp,48
     fa8:	fca42e23          	sw	a0,-36(s0)
     fac:	fcb42c23          	sw	a1,-40(s0)
     fb0:	fcc42a23          	sw	a2,-44(s0)
    altera_avalon_jtag_uart_dev* dev = (altera_avalon_jtag_uart_dev*) fd->dev;
     fb4:	fdc42783          	lw	a5,-36(s0)
     fb8:	0007a783          	lw	a5,0(a5)
     fbc:	fef42623          	sw	a5,-20(s0)

    return altera_avalon_jtag_uart_ioctl(&dev->state, req, arg);
     fc0:	fec42783          	lw	a5,-20(s0)
     fc4:	02878793          	add	a5,a5,40
     fc8:	fd442603          	lw	a2,-44(s0)
     fcc:	fd842583          	lw	a1,-40(s0)
     fd0:	00078513          	mv	a0,a5
     fd4:	43c000ef          	jal	1410 <altera_avalon_jtag_uart_ioctl>
     fd8:	00050793          	mv	a5,a0
}
     fdc:	00078513          	mv	a0,a5
     fe0:	02c12083          	lw	ra,44(sp)
     fe4:	02812403          	lw	s0,40(sp)
     fe8:	03010113          	add	sp,sp,48
     fec:	00008067          	ret

00000ff0 <altera_avalon_jtag_uart_init>:
 * Return 1 on sucessful IRQ register and 0 on failure.
 */

void altera_avalon_jtag_uart_init(altera_avalon_jtag_uart_state* sp, 
                                  int irq_controller_id, int irq)
{
     ff0:	fd010113          	add	sp,sp,-48
     ff4:	02112623          	sw	ra,44(sp)
     ff8:	02812423          	sw	s0,40(sp)
     ffc:	03010413          	add	s0,sp,48
    1000:	fca42e23          	sw	a0,-36(s0)
    1004:	fcb42c23          	sw	a1,-40(s0)
    1008:	fcc42a23          	sw	a2,-44(s0)
  ALT_FLAG_CREATE(&sp->events, 0);
  ALT_SEM_CREATE(&sp->read_lock, 1);
  ALT_SEM_CREATE(&sp->write_lock, 1);

  /* enable read interrupts at the device */
  sp->irq_enable = ALTERA_AVALON_JTAG_UART_CONTROL_RE_MSK;
    100c:	fdc42783          	lw	a5,-36(s0)
    1010:	00100713          	li	a4,1
    1014:	02e7a023          	sw	a4,32(a5)

  IOWR_ALTERA_AVALON_JTAG_UART_CONTROL(sp->base, sp->irq_enable); 
    1018:	fdc42783          	lw	a5,-36(s0)
    101c:	0207a783          	lw	a5,32(a5)
    1020:	fef42623          	sw	a5,-20(s0)
    1024:	fdc42783          	lw	a5,-36(s0)
    1028:	0007a783          	lw	a5,0(a5)
    102c:	00478793          	add	a5,a5,4
    1030:	00078713          	mv	a4,a5
    1034:	fec42783          	lw	a5,-20(s0)
    1038:	00f72023          	sw	a5,0(a4)
  
  /* register the interrupt handler */
#ifdef ALT_ENHANCED_INTERRUPT_API_PRESENT
  alt_ic_isr_register(irq_controller_id, irq, altera_avalon_jtag_uart_irq, 
    103c:	fd842503          	lw	a0,-40(s0)
    1040:	fd442583          	lw	a1,-44(s0)
    1044:	00000713          	li	a4,0
    1048:	fdc42683          	lw	a3,-36(s0)
    104c:	000017b7          	lui	a5,0x1
    1050:	0b078613          	add	a2,a5,176 # 10b0 <altera_avalon_jtag_uart_irq>
    1054:	4d9000ef          	jal	1d2c <alt_ic_isr_register>
#else
  alt_irq_register(irq, sp, altera_avalon_jtag_uart_irq);
#endif  

  /* Register an alarm to go off every second to check for presence of host */
  sp->host_inactive = 0;
    1058:	fdc42783          	lw	a5,-36(s0)
    105c:	0207a223          	sw	zero,36(a5)

  if (alt_alarm_start(&sp->alarm, alt_ticks_per_second(), 
    1060:	fdc42783          	lw	a5,-36(s0)
    1064:	00878713          	add	a4,a5,8
  return _alt_tick_rate;
    1068:	0001a7b7          	lui	a5,0x1a
    106c:	b807a583          	lw	a1,-1152(a5) # 19b80 <_alt_tick_rate>
    1070:	fdc42683          	lw	a3,-36(s0)
    1074:	000017b7          	lui	a5,0x1
    1078:	2e878613          	add	a2,a5,744 # 12e8 <altera_avalon_jtag_uart_timeout>
    107c:	00070513          	mv	a0,a4
    1080:	0f9000ef          	jal	1978 <alt_alarm_start>
    1084:	00050793          	mv	a5,a0
    1088:	0007da63          	bgez	a5,109c <altera_avalon_jtag_uart_init+0xac>
    &altera_avalon_jtag_uart_timeout, sp) < 0)
  {
    /* If we can't set the alarm then record "don't know if host present" 
     * and behave as though the host is present.
     */
    sp->timeout = INT_MAX;
    108c:	fdc42783          	lw	a5,-36(s0)
    1090:	80000737          	lui	a4,0x80000
    1094:	fff70713          	add	a4,a4,-1 # 7fffffff <__alt_data_end+0x7ffcdfff>
    1098:	00e7a223          	sw	a4,4(a5)
  }

  /* ALT_LOG - see altera_hal/HAL/inc/sys/alt_log_printf.h */ 
  ALT_LOG_JTAG_UART_ALARM_REGISTER(sp, sp->base);
}
    109c:	00000013          	nop
    10a0:	02c12083          	lw	ra,44(sp)
    10a4:	02812403          	lw	s0,40(sp)
    10a8:	03010113          	add	sp,sp,48
    10ac:	00008067          	ret

000010b0 <altera_avalon_jtag_uart_irq>:
#ifdef ALT_ENHANCED_INTERRUPT_API_PRESENT
static void altera_avalon_jtag_uart_irq(void* context)
#else
static void altera_avalon_jtag_uart_irq(void* context, alt_u32 id)
#endif
{
    10b0:	fa010113          	add	sp,sp,-96
    10b4:	04812e23          	sw	s0,92(sp)
    10b8:	06010413          	add	s0,sp,96
    10bc:	faa42623          	sw	a0,-84(s0)
  altera_avalon_jtag_uart_state* sp = (altera_avalon_jtag_uart_state*) context;
    10c0:	fac42783          	lw	a5,-84(s0)
    10c4:	fcf42223          	sw	a5,-60(s0)
  unsigned int base = sp->base;
    10c8:	fc442783          	lw	a5,-60(s0)
    10cc:	0007a783          	lw	a5,0(a5)
    10d0:	fcf42423          	sw	a5,-56(s0)
  unsigned int postflag=0;
    10d4:	fa042c23          	sw	zero,-72(s0)
  /* ALT_LOG - see altera_hal/HAL/inc/sys/alt_log_printf.h */ 
  ALT_LOG_JTAG_UART_ISR_FUNCTION(base, sp);

  for ( ; ; )
  {
    unsigned int control = IORD_ALTERA_AVALON_JTAG_UART_CONTROL(base);
    10d8:	fc842783          	lw	a5,-56(s0)
    10dc:	00478793          	add	a5,a5,4
    10e0:	0007a783          	lw	a5,0(a5)
    10e4:	fcf42623          	sw	a5,-52(s0)
    10e8:	fcc42783          	lw	a5,-52(s0)
    10ec:	fcf42823          	sw	a5,-48(s0)

    /* Return once nothing more to do */
    if ((control & (ALTERA_AVALON_JTAG_UART_CONTROL_RI_MSK | ALTERA_AVALON_JTAG_UART_CONTROL_WI_MSK)) == 0)
    10f0:	fd042783          	lw	a5,-48(s0)
    10f4:	3007f793          	and	a5,a5,768
    10f8:	1c078e63          	beqz	a5,12d4 <altera_avalon_jtag_uart_irq+0x224>
      break;

    if (control & ALTERA_AVALON_JTAG_UART_CONTROL_RI_MSK)
    10fc:	fd042783          	lw	a5,-48(s0)
    1100:	1007f793          	and	a5,a5,256
    1104:	0e078663          	beqz	a5,11f0 <altera_avalon_jtag_uart_irq+0x140>
    {
      /* process a read irq.  Start by assuming that there is data in the
       * receive FIFO (otherwise why would we have been interrupted?)
       */
      unsigned int data = 1 << ALTERA_AVALON_JTAG_UART_DATA_RAVAIL_OFST;
    1108:	000107b7          	lui	a5,0x10
    110c:	faf42e23          	sw	a5,-68(s0)
      for ( ; ; )
      {
        /* Check whether there is space in the buffer.  If not then we must not
         * read any characters from the buffer as they will be lost.
         */
        unsigned int next = (sp->rx_in + 1) % ALTERA_AVALON_JTAG_UART_BUF_LEN;
    1110:	fc442783          	lw	a5,-60(s0)
    1114:	0287a783          	lw	a5,40(a5) # 10028 <__divdf3+0x6dc>
    1118:	00178793          	add	a5,a5,1
    111c:	7ff7f793          	and	a5,a5,2047
    1120:	fcf42a23          	sw	a5,-44(s0)
        if (next == sp->rx_out)
    1124:	fc442783          	lw	a5,-60(s0)
    1128:	02c7a783          	lw	a5,44(a5)
    112c:	fd442703          	lw	a4,-44(s0)
    1130:	06f70263          	beq	a4,a5,1194 <altera_avalon_jtag_uart_irq+0xe4>
          break;

        /* Try to remove a character from the FIFO and find out whether there
         * are any more characters remaining.
         */
        data = IORD_ALTERA_AVALON_JTAG_UART_DATA(base);
    1134:	fc842783          	lw	a5,-56(s0)
    1138:	0007a783          	lw	a5,0(a5)
    113c:	fcf42c23          	sw	a5,-40(s0)
    1140:	fd842783          	lw	a5,-40(s0)
    1144:	faf42e23          	sw	a5,-68(s0)
        
        if ((data & ALTERA_AVALON_JTAG_UART_DATA_RVALID_MSK) == 0)
    1148:	fbc42703          	lw	a4,-68(s0)
    114c:	000087b7          	lui	a5,0x8
    1150:	00f777b3          	and	a5,a4,a5
    1154:	04078463          	beqz	a5,119c <altera_avalon_jtag_uart_irq+0xec>
          break;

        sp->rx_buf[sp->rx_in] = (data & ALTERA_AVALON_JTAG_UART_DATA_DATA_MSK) >> ALTERA_AVALON_JTAG_UART_DATA_DATA_OFST;
    1158:	fc442783          	lw	a5,-60(s0)
    115c:	0287a783          	lw	a5,40(a5) # 8028 <_vfprintf_r+0x2530>
    1160:	fbc42703          	lw	a4,-68(s0)
    1164:	0ff77713          	zext.b	a4,a4
    1168:	fc442683          	lw	a3,-60(s0)
    116c:	00f687b3          	add	a5,a3,a5
    1170:	02e78c23          	sb	a4,56(a5)
        sp->rx_in = (sp->rx_in + 1) % ALTERA_AVALON_JTAG_UART_BUF_LEN;
    1174:	fc442783          	lw	a5,-60(s0)
    1178:	0287a783          	lw	a5,40(a5)
    117c:	00178793          	add	a5,a5,1
    1180:	7ff7f713          	and	a4,a5,2047
    1184:	fc442783          	lw	a5,-60(s0)
    1188:	02e7a423          	sw	a4,40(a5)
 * HAL.
 */

static ALT_INLINE int ALT_ALWAYS_INLINE alt_no_error (void)
{
  return 0;
    118c:	00000013          	nop
      {
    1190:	f81ff06f          	j	1110 <altera_avalon_jtag_uart_irq+0x60>
          break;
    1194:	00000013          	nop
    1198:	0080006f          	j	11a0 <altera_avalon_jtag_uart_irq+0xf0>
          break;
    119c:	00000013          	nop

        /* Post an event to notify jtag_uart_read that a character has been read */
        ALT_FLAG_POST (sp->events, ALT_JTAG_UART_READ_RDY, ALT_FLAG_SET);
      }

      if (data & ALTERA_AVALON_JTAG_UART_DATA_RAVAIL_MSK)
    11a0:	fbc42703          	lw	a4,-68(s0)
    11a4:	000107b7          	lui	a5,0x10
    11a8:	04f76463          	bltu	a4,a5,11f0 <altera_avalon_jtag_uart_irq+0x140>
      {
        /* If there is still data available here then the buffer is full 
         * so turn off receive interrupts until some space becomes available.
         */
        sp->irq_enable &= ~ALTERA_AVALON_JTAG_UART_CONTROL_RE_MSK;
    11ac:	fc442783          	lw	a5,-60(s0)
    11b0:	0207a783          	lw	a5,32(a5) # 10020 <__divdf3+0x6d4>
    11b4:	ffe7f713          	and	a4,a5,-2
    11b8:	fc442783          	lw	a5,-60(s0)
    11bc:	02e7a023          	sw	a4,32(a5)
        IOWR_ALTERA_AVALON_JTAG_UART_CONTROL(base, sp->irq_enable);
    11c0:	fc442783          	lw	a5,-60(s0)
    11c4:	0207a783          	lw	a5,32(a5)
    11c8:	fcf42e23          	sw	a5,-36(s0)
    11cc:	fc842783          	lw	a5,-56(s0)
    11d0:	00478793          	add	a5,a5,4
    11d4:	00078713          	mv	a4,a5
    11d8:	fdc42783          	lw	a5,-36(s0)
    11dc:	00f72023          	sw	a5,0(a4)
        
        /* Dummy read to ensure IRQ is cleared prior to ISR completion */
        IORD_ALTERA_AVALON_JTAG_UART_CONTROL(base);
    11e0:	fc842783          	lw	a5,-56(s0)
    11e4:	00478793          	add	a5,a5,4
    11e8:	0007a783          	lw	a5,0(a5)
    11ec:	fef42023          	sw	a5,-32(s0)
      }
    }

    if (control & ALTERA_AVALON_JTAG_UART_CONTROL_WI_MSK)
    11f0:	fd042783          	lw	a5,-48(s0)
    11f4:	2007f793          	and	a5,a5,512
    11f8:	ee0780e3          	beqz	a5,10d8 <altera_avalon_jtag_uart_irq+0x28>
    {
      /* process a write irq */
      unsigned int space = (control & ALTERA_AVALON_JTAG_UART_CONTROL_WSPACE_MSK) >> ALTERA_AVALON_JTAG_UART_CONTROL_WSPACE_OFST;
    11fc:	fd042783          	lw	a5,-48(s0)
    1200:	0107d793          	srl	a5,a5,0x10
    1204:	fcf42023          	sw	a5,-64(s0)

      while (space > 0 && sp->tx_out != sp->tx_in)
    1208:	05c0006f          	j	1264 <altera_avalon_jtag_uart_irq+0x1b4>
      {
        IOWR_ALTERA_AVALON_JTAG_UART_DATA(base, sp->tx_buf[sp->tx_out]);
    120c:	fc442783          	lw	a5,-60(s0)
    1210:	0347a783          	lw	a5,52(a5)
    1214:	fc442703          	lw	a4,-60(s0)
    1218:	00f707b3          	add	a5,a4,a5
    121c:	00001737          	lui	a4,0x1
    1220:	00f707b3          	add	a5,a4,a5
    1224:	8387c783          	lbu	a5,-1992(a5)
    1228:	fef42223          	sw	a5,-28(s0)
    122c:	fc842783          	lw	a5,-56(s0)
    1230:	fe442703          	lw	a4,-28(s0)
    1234:	00e7a023          	sw	a4,0(a5)

        sp->tx_out = (sp->tx_out + 1) % ALTERA_AVALON_JTAG_UART_BUF_LEN;
    1238:	fc442783          	lw	a5,-60(s0)
    123c:	0347a783          	lw	a5,52(a5)
    1240:	00178793          	add	a5,a5,1
    1244:	7ff7f713          	and	a4,a5,2047
    1248:	fc442783          	lw	a5,-60(s0)
    124c:	02e7aa23          	sw	a4,52(a5)
        
        /* indicate that the ALT_FLAG_POST routine must be called */
        postflag=1;
    1250:	00100793          	li	a5,1
    1254:	faf42c23          	sw	a5,-72(s0)

        space--;
    1258:	fc042783          	lw	a5,-64(s0)
    125c:	fff78793          	add	a5,a5,-1
    1260:	fcf42023          	sw	a5,-64(s0)
      while (space > 0 && sp->tx_out != sp->tx_in)
    1264:	fc042783          	lw	a5,-64(s0)
    1268:	00078c63          	beqz	a5,1280 <altera_avalon_jtag_uart_irq+0x1d0>
    126c:	fc442783          	lw	a5,-60(s0)
    1270:	0347a703          	lw	a4,52(a5)
    1274:	fc442783          	lw	a5,-60(s0)
    1278:	0307a783          	lw	a5,48(a5)
    127c:	f8f718e3          	bne	a4,a5,120c <altera_avalon_jtag_uart_irq+0x15c>
      {
        /* Post an event to notify jtag_uart_write that a character has been written */
        ALT_FLAG_POST (sp->events, ALT_JTAG_UART_WRITE_RDY, ALT_FLAG_SET);
      }

      if (space > 0)
    1280:	fc042783          	lw	a5,-64(s0)
    1284:	e4078ae3          	beqz	a5,10d8 <altera_avalon_jtag_uart_irq+0x28>
      {
        /* If we don't have any more data available then turn off the TX interrupt */
        sp->irq_enable &= ~ALTERA_AVALON_JTAG_UART_CONTROL_WE_MSK;
    1288:	fc442783          	lw	a5,-60(s0)
    128c:	0207a783          	lw	a5,32(a5)
    1290:	ffd7f713          	and	a4,a5,-3
    1294:	fc442783          	lw	a5,-60(s0)
    1298:	02e7a023          	sw	a4,32(a5)
        IOWR_ALTERA_AVALON_JTAG_UART_CONTROL(sp->base, sp->irq_enable);
    129c:	fc442783          	lw	a5,-60(s0)
    12a0:	0207a783          	lw	a5,32(a5)
    12a4:	fef42423          	sw	a5,-24(s0)
    12a8:	fc442783          	lw	a5,-60(s0)
    12ac:	0007a783          	lw	a5,0(a5)
    12b0:	00478793          	add	a5,a5,4
    12b4:	00078713          	mv	a4,a5
    12b8:	fe842783          	lw	a5,-24(s0)
    12bc:	00f72023          	sw	a5,0(a4) # 1000 <altera_avalon_jtag_uart_init+0x10>
        
        /* Dummy read to ensure IRQ is cleared prior to ISR completion */
        IORD_ALTERA_AVALON_JTAG_UART_CONTROL(base);
    12c0:	fc842783          	lw	a5,-56(s0)
    12c4:	00478793          	add	a5,a5,4
    12c8:	0007a783          	lw	a5,0(a5)
    12cc:	fef42623          	sw	a5,-20(s0)
  {
    12d0:	e09ff06f          	j	10d8 <altera_avalon_jtag_uart_irq+0x28>
      break;
    12d4:	00000013          	nop
      }
    }
  }
}
    12d8:	00000013          	nop
    12dc:	05c12403          	lw	s0,92(sp)
    12e0:	06010113          	add	sp,sp,96
    12e4:	00008067          	ret

000012e8 <altera_avalon_jtag_uart_timeout>:
 * Timeout routine is called every second
 */

static alt_u32 
altera_avalon_jtag_uart_timeout(void* context) 
{
    12e8:	fd010113          	add	sp,sp,-48
    12ec:	02812623          	sw	s0,44(sp)
    12f0:	03010413          	add	s0,sp,48
    12f4:	fca42e23          	sw	a0,-36(s0)
  altera_avalon_jtag_uart_state* sp = (altera_avalon_jtag_uart_state *) context;
    12f8:	fdc42783          	lw	a5,-36(s0)
    12fc:	fef42023          	sw	a5,-32(s0)

  unsigned int control = IORD_ALTERA_AVALON_JTAG_UART_CONTROL(sp->base);
    1300:	fe042783          	lw	a5,-32(s0)
    1304:	0007a783          	lw	a5,0(a5)
    1308:	00478793          	add	a5,a5,4
    130c:	0007a783          	lw	a5,0(a5)
    1310:	fef42223          	sw	a5,-28(s0)
    1314:	fe442783          	lw	a5,-28(s0)
    1318:	fef42423          	sw	a5,-24(s0)

  if (control & ALTERA_AVALON_JTAG_UART_CONTROL_AC_MSK)
    131c:	fe842783          	lw	a5,-24(s0)
    1320:	4007f793          	and	a5,a5,1024
    1324:	02078c63          	beqz	a5,135c <altera_avalon_jtag_uart_timeout+0x74>
  {
    IOWR_ALTERA_AVALON_JTAG_UART_CONTROL(sp->base, sp->irq_enable | ALTERA_AVALON_JTAG_UART_CONTROL_AC_MSK);
    1328:	fe042783          	lw	a5,-32(s0)
    132c:	0207a783          	lw	a5,32(a5)
    1330:	4007e793          	or	a5,a5,1024
    1334:	fef42623          	sw	a5,-20(s0)
    1338:	fe042783          	lw	a5,-32(s0)
    133c:	0007a783          	lw	a5,0(a5)
    1340:	00478793          	add	a5,a5,4
    1344:	00078713          	mv	a4,a5
    1348:	fec42783          	lw	a5,-20(s0)
    134c:	00f72023          	sw	a5,0(a4)
    sp->host_inactive = 0;
    1350:	fe042783          	lw	a5,-32(s0)
    1354:	0207a223          	sw	zero,36(a5)
    1358:	0340006f          	j	138c <altera_avalon_jtag_uart_timeout+0xa4>
  }
  else if (sp->host_inactive < INT_MAX - 2) {
    135c:	fe042783          	lw	a5,-32(s0)
    1360:	0247a703          	lw	a4,36(a5)
    1364:	800007b7          	lui	a5,0x80000
    1368:	ffc78793          	add	a5,a5,-4 # 7ffffffc <__alt_data_end+0x7ffcdffc>
    136c:	02e7e063          	bltu	a5,a4,138c <altera_avalon_jtag_uart_timeout+0xa4>
    sp->host_inactive++;
    1370:	fe042783          	lw	a5,-32(s0)
    1374:	0247a783          	lw	a5,36(a5)
    1378:	00178713          	add	a4,a5,1
    137c:	fe042783          	lw	a5,-32(s0)
    1380:	02e7a223          	sw	a4,36(a5)
    
    if (sp->host_inactive >= sp->timeout) {
    1384:	fe042783          	lw	a5,-32(s0)
    1388:	0247a783          	lw	a5,36(a5)
    138c:	0001a7b7          	lui	a5,0x1a
    1390:	b807a783          	lw	a5,-1152(a5) # 19b80 <_alt_tick_rate>
      ALT_FLAG_POST (sp->events, ALT_JTAG_UART_TIMEOUT, ALT_FLAG_SET);
    }
  }

  return alt_ticks_per_second();
}
    1394:	00078513          	mv	a0,a5
    1398:	02c12403          	lw	s0,44(sp)
    139c:	03010113          	add	sp,sp,48
    13a0:	00008067          	ret

000013a4 <altera_avalon_jtag_uart_close>:
 * The close routine is not implemented for the small driver; instead it will
 * map to null. This is because the small driver simply waits while characters
 * are transmitted; there is no interrupt-serviced buffer to empty 
 */
int altera_avalon_jtag_uart_close(altera_avalon_jtag_uart_state* sp, int flags)
{
    13a4:	fe010113          	add	sp,sp,-32
    13a8:	00812e23          	sw	s0,28(sp)
    13ac:	02010413          	add	s0,sp,32
    13b0:	fea42623          	sw	a0,-20(s0)
    13b4:	feb42423          	sw	a1,-24(s0)
  /* 
   * Wait for all transmit data to be emptied by the JTAG UART ISR, or
   * for a host-inactivity timeout, in which case transmit data will be lost
   */
  while ( (sp->tx_out != sp->tx_in) && (sp->host_inactive < sp->timeout) ) {
    13b8:	01c0006f          	j	13d4 <altera_avalon_jtag_uart_close+0x30>
    if (flags & O_NONBLOCK) {
    13bc:	fe842703          	lw	a4,-24(s0)
    13c0:	000047b7          	lui	a5,0x4
    13c4:	00f777b3          	and	a5,a4,a5
    13c8:	00078663          	beqz	a5,13d4 <altera_avalon_jtag_uart_close+0x30>
      return -EWOULDBLOCK; 
    13cc:	ff500793          	li	a5,-11
    13d0:	0300006f          	j	1400 <altera_avalon_jtag_uart_close+0x5c>
  while ( (sp->tx_out != sp->tx_in) && (sp->host_inactive < sp->timeout) ) {
    13d4:	fec42783          	lw	a5,-20(s0)
    13d8:	0347a703          	lw	a4,52(a5) # 4034 <_fclose_r>
    13dc:	fec42783          	lw	a5,-20(s0)
    13e0:	0307a783          	lw	a5,48(a5)
    13e4:	00f70c63          	beq	a4,a5,13fc <altera_avalon_jtag_uart_close+0x58>
    13e8:	fec42783          	lw	a5,-20(s0)
    13ec:	0247a703          	lw	a4,36(a5)
    13f0:	fec42783          	lw	a5,-20(s0)
    13f4:	0047a783          	lw	a5,4(a5)
    13f8:	fcf762e3          	bltu	a4,a5,13bc <altera_avalon_jtag_uart_close+0x18>
    }
  }

  return 0;
    13fc:	00000793          	li	a5,0
}
    1400:	00078513          	mv	a0,a5
    1404:	01c12403          	lw	s0,28(sp)
    1408:	02010113          	add	sp,sp,32
    140c:	00008067          	ret

00001410 <altera_avalon_jtag_uart_ioctl>:
/* ----------------------------------------------------------- */

int 
altera_avalon_jtag_uart_ioctl(altera_avalon_jtag_uart_state* sp, int req,
  void* arg)
{
    1410:	fd010113          	add	sp,sp,-48
    1414:	02812623          	sw	s0,44(sp)
    1418:	03010413          	add	s0,sp,48
    141c:	fca42e23          	sw	a0,-36(s0)
    1420:	fcb42c23          	sw	a1,-40(s0)
    1424:	fcc42a23          	sw	a2,-44(s0)
  int rc = -ENOTTY;
    1428:	fe700793          	li	a5,-25
    142c:	fef42423          	sw	a5,-24(s0)

  switch (req)
    1430:	fd842703          	lw	a4,-40(s0)
    1434:	000077b7          	lui	a5,0x7
    1438:	a0178793          	add	a5,a5,-1535 # 6a01 <_vfprintf_r+0xf09>
    143c:	00f70c63          	beq	a4,a5,1454 <altera_avalon_jtag_uart_ioctl+0x44>
    1440:	fd842703          	lw	a4,-40(s0)
    1444:	000077b7          	lui	a5,0x7
    1448:	a0278793          	add	a5,a5,-1534 # 6a02 <_vfprintf_r+0xf0a>
    144c:	06f70263          	beq	a4,a5,14b0 <altera_avalon_jtag_uart_ioctl+0xa0>
      rc = 0;
    }
    break;

  default:
    break;
    1450:	0ac0006f          	j	14fc <altera_avalon_jtag_uart_ioctl+0xec>
    if (sp->timeout != INT_MAX)
    1454:	fdc42783          	lw	a5,-36(s0)
    1458:	0047a703          	lw	a4,4(a5)
    145c:	800007b7          	lui	a5,0x80000
    1460:	fff78793          	add	a5,a5,-1 # 7fffffff <__alt_data_end+0x7ffcdfff>
    1464:	08f70663          	beq	a4,a5,14f0 <altera_avalon_jtag_uart_ioctl+0xe0>
      int timeout = *((int *)arg);
    1468:	fd442783          	lw	a5,-44(s0)
    146c:	0007a783          	lw	a5,0(a5)
    1470:	fef42623          	sw	a5,-20(s0)
      sp->timeout = (timeout >= 2 && timeout < INT_MAX) ? timeout : INT_MAX - 1;
    1474:	fec42703          	lw	a4,-20(s0)
    1478:	00100793          	li	a5,1
    147c:	00e7de63          	bge	a5,a4,1498 <altera_avalon_jtag_uart_ioctl+0x88>
    1480:	fec42703          	lw	a4,-20(s0)
    1484:	800007b7          	lui	a5,0x80000
    1488:	fff78793          	add	a5,a5,-1 # 7fffffff <__alt_data_end+0x7ffcdfff>
    148c:	00f70663          	beq	a4,a5,1498 <altera_avalon_jtag_uart_ioctl+0x88>
    1490:	fec42783          	lw	a5,-20(s0)
    1494:	00c0006f          	j	14a0 <altera_avalon_jtag_uart_ioctl+0x90>
    1498:	800007b7          	lui	a5,0x80000
    149c:	ffe78793          	add	a5,a5,-2 # 7ffffffe <__alt_data_end+0x7ffcdffe>
    14a0:	fdc42703          	lw	a4,-36(s0)
    14a4:	00f72223          	sw	a5,4(a4)
      rc = 0;
    14a8:	fe042423          	sw	zero,-24(s0)
    break;
    14ac:	0440006f          	j	14f0 <altera_avalon_jtag_uart_ioctl+0xe0>
    if (sp->timeout != INT_MAX)
    14b0:	fdc42783          	lw	a5,-36(s0)
    14b4:	0047a703          	lw	a4,4(a5)
    14b8:	800007b7          	lui	a5,0x80000
    14bc:	fff78793          	add	a5,a5,-1 # 7fffffff <__alt_data_end+0x7ffcdfff>
    14c0:	02f70c63          	beq	a4,a5,14f8 <altera_avalon_jtag_uart_ioctl+0xe8>
      *((int *)arg) = (sp->host_inactive < sp->timeout) ? 1 : 0;
    14c4:	fdc42783          	lw	a5,-36(s0)
    14c8:	0247a703          	lw	a4,36(a5)
    14cc:	fdc42783          	lw	a5,-36(s0)
    14d0:	0047a783          	lw	a5,4(a5)
    14d4:	00f737b3          	sltu	a5,a4,a5
    14d8:	0ff7f793          	zext.b	a5,a5
    14dc:	00078713          	mv	a4,a5
    14e0:	fd442783          	lw	a5,-44(s0)
    14e4:	00e7a023          	sw	a4,0(a5)
      rc = 0;
    14e8:	fe042423          	sw	zero,-24(s0)
    break;
    14ec:	00c0006f          	j	14f8 <altera_avalon_jtag_uart_ioctl+0xe8>
    break;
    14f0:	00000013          	nop
    14f4:	0080006f          	j	14fc <altera_avalon_jtag_uart_ioctl+0xec>
    break;
    14f8:	00000013          	nop
  }

  return rc;
    14fc:	fe842783          	lw	a5,-24(s0)
}
    1500:	00078513          	mv	a0,a5
    1504:	02c12403          	lw	s0,44(sp)
    1508:	03010113          	add	sp,sp,48
    150c:	00008067          	ret

00001510 <altera_avalon_jtag_uart_read>:
/* ----------------------------------------------------------- */

int 
altera_avalon_jtag_uart_read(altera_avalon_jtag_uart_state* sp, 
  char * buffer, int space, int flags)
{
    1510:	fc010113          	add	sp,sp,-64
    1514:	02112e23          	sw	ra,60(sp)
    1518:	02812c23          	sw	s0,56(sp)
    151c:	04010413          	add	s0,sp,64
    1520:	fca42623          	sw	a0,-52(s0)
    1524:	fcb42423          	sw	a1,-56(s0)
    1528:	fcc42223          	sw	a2,-60(s0)
    152c:	fcd42023          	sw	a3,-64(s0)
  char * ptr = buffer;
    1530:	fc842783          	lw	a5,-56(s0)
    1534:	fcf42823          	sw	a5,-48(s0)
   * When running in a multi threaded environment, obtain the "read_lock"
   * semaphore. This ensures that reading from the device is thread-safe.
   */
  ALT_SEM_PEND (sp->read_lock, 0);

  while (space > 0)
    1538:	1280006f          	j	1660 <altera_avalon_jtag_uart_read+0x150>
    unsigned int in, out;

    /* Read as much data as possible */
    do
    {
      in  = sp->rx_in;
    153c:	fcc42783          	lw	a5,-52(s0)
    1540:	0287a783          	lw	a5,40(a5)
    1544:	fcf42c23          	sw	a5,-40(s0)
      out = sp->rx_out;
    1548:	fcc42783          	lw	a5,-52(s0)
    154c:	02c7a783          	lw	a5,44(a5)
    1550:	fcf42e23          	sw	a5,-36(s0)

      if (in >= out)
    1554:	fd842703          	lw	a4,-40(s0)
    1558:	fdc42783          	lw	a5,-36(s0)
    155c:	00f76c63          	bltu	a4,a5,1574 <altera_avalon_jtag_uart_read+0x64>
        n = in - out;
    1560:	fd842703          	lw	a4,-40(s0)
    1564:	fdc42783          	lw	a5,-36(s0)
    1568:	40f707b3          	sub	a5,a4,a5
    156c:	fcf42a23          	sw	a5,-44(s0)
    1570:	0180006f          	j	1588 <altera_avalon_jtag_uart_read+0x78>
      else
        n = ALTERA_AVALON_JTAG_UART_BUF_LEN - out;
    1574:	000017b7          	lui	a5,0x1
    1578:	80078713          	add	a4,a5,-2048 # 800 <decrypt+0xc>
    157c:	fdc42783          	lw	a5,-36(s0)
    1580:	40f707b3          	sub	a5,a4,a5
    1584:	fcf42a23          	sw	a5,-44(s0)

      if (n == 0)
    1588:	fd442783          	lw	a5,-44(s0)
    158c:	06078e63          	beqz	a5,1608 <altera_avalon_jtag_uart_read+0xf8>
        break; /* No more data available */

      if (n > space)
    1590:	fc442783          	lw	a5,-60(s0)
    1594:	fd442703          	lw	a4,-44(s0)
    1598:	00e7f663          	bgeu	a5,a4,15a4 <altera_avalon_jtag_uart_read+0x94>
        n = space;
    159c:	fc442783          	lw	a5,-60(s0)
    15a0:	fcf42a23          	sw	a5,-44(s0)

      memcpy(ptr, sp->rx_buf + out, n);
    15a4:	fcc42783          	lw	a5,-52(s0)
    15a8:	03878713          	add	a4,a5,56
    15ac:	fdc42783          	lw	a5,-36(s0)
    15b0:	00f707b3          	add	a5,a4,a5
    15b4:	fd442603          	lw	a2,-44(s0)
    15b8:	00078593          	mv	a1,a5
    15bc:	fd042503          	lw	a0,-48(s0)
    15c0:	4cd020ef          	jal	428c <memcpy>
      ptr   += n;
    15c4:	fd042703          	lw	a4,-48(s0)
    15c8:	fd442783          	lw	a5,-44(s0)
    15cc:	00f707b3          	add	a5,a4,a5
    15d0:	fcf42823          	sw	a5,-48(s0)
      space -= n;
    15d4:	fc442703          	lw	a4,-60(s0)
    15d8:	fd442783          	lw	a5,-44(s0)
    15dc:	40f707b3          	sub	a5,a4,a5
    15e0:	fcf42223          	sw	a5,-60(s0)

      sp->rx_out = (out + n) % ALTERA_AVALON_JTAG_UART_BUF_LEN;
    15e4:	fdc42703          	lw	a4,-36(s0)
    15e8:	fd442783          	lw	a5,-44(s0)
    15ec:	00f707b3          	add	a5,a4,a5
    15f0:	7ff7f713          	and	a4,a5,2047
    15f4:	fcc42783          	lw	a5,-52(s0)
    15f8:	02e7a623          	sw	a4,44(a5)
    }
    while (space > 0);
    15fc:	fc442783          	lw	a5,-60(s0)
    1600:	f2f04ee3          	bgtz	a5,153c <altera_avalon_jtag_uart_read+0x2c>
    1604:	0080006f          	j	160c <altera_avalon_jtag_uart_read+0xfc>
        break; /* No more data available */
    1608:	00000013          	nop

    /* If we read any data then return it */
    if (ptr != buffer)
    160c:	fd042703          	lw	a4,-48(s0)
    1610:	fc842783          	lw	a5,-56(s0)
    1614:	04f71c63          	bne	a4,a5,166c <altera_avalon_jtag_uart_read+0x15c>
      break;

    /* If in non-blocking mode then return error */
    if (flags & O_NONBLOCK)
    1618:	fc042703          	lw	a4,-64(s0)
    161c:	000047b7          	lui	a5,0x4
    1620:	00f777b3          	and	a5,a4,a5
    1624:	04079863          	bnez	a5,1674 <altera_avalon_jtag_uart_read+0x164>
      while (in == sp->rx_in && sp->host_inactive < sp->timeout)
        ;
    }
#else
    /* No OS: Always spin */
    while (in == sp->rx_in && sp->host_inactive < sp->timeout)
    1628:	00000013          	nop
    162c:	fcc42783          	lw	a5,-52(s0)
    1630:	0287a783          	lw	a5,40(a5) # 4028 <close>
    1634:	fd842703          	lw	a4,-40(s0)
    1638:	00f71c63          	bne	a4,a5,1650 <altera_avalon_jtag_uart_read+0x140>
    163c:	fcc42783          	lw	a5,-52(s0)
    1640:	0247a703          	lw	a4,36(a5)
    1644:	fcc42783          	lw	a5,-52(s0)
    1648:	0047a783          	lw	a5,4(a5)
    164c:	fef760e3          	bltu	a4,a5,162c <altera_avalon_jtag_uart_read+0x11c>
      ;
#endif /* __ucosii__ */

    if (in == sp->rx_in)
    1650:	fcc42783          	lw	a5,-52(s0)
    1654:	0287a783          	lw	a5,40(a5)
    1658:	fd842703          	lw	a4,-40(s0)
    165c:	02f70063          	beq	a4,a5,167c <altera_avalon_jtag_uart_read+0x16c>
  while (space > 0)
    1660:	fc442783          	lw	a5,-60(s0)
    1664:	ecf04ce3          	bgtz	a5,153c <altera_avalon_jtag_uart_read+0x2c>
    1668:	0180006f          	j	1680 <altera_avalon_jtag_uart_read+0x170>
      break;
    166c:	00000013          	nop
    1670:	0100006f          	j	1680 <altera_avalon_jtag_uart_read+0x170>
      break;
    1674:	00000013          	nop
    1678:	0080006f          	j	1680 <altera_avalon_jtag_uart_read+0x170>
      break;
    167c:	00000013          	nop
   * semaphore so that other threads can access the buffer.
   */

  ALT_SEM_POST (sp->read_lock);

  if (ptr != buffer)
    1680:	fd042703          	lw	a4,-48(s0)
    1684:	fc842783          	lw	a5,-56(s0)
    1688:	06f70463          	beq	a4,a5,16f0 <altera_avalon_jtag_uart_read+0x1e0>
    NIOSV_READ_AND_CLR_CSR(NIOSV_MSTATUS_CSR, context, NIOSV_MSTATUS_MIE_MASK);
    168c:	00800793          	li	a5,8
    1690:	3007b7f3          	csrrc	a5,mstatus,a5
    1694:	fef42623          	sw	a5,-20(s0)
    return context;
    1698:	fec42783          	lw	a5,-20(s0)
  {
    /* If we read any data then there is space in the buffer so enable interrupts */
    context = alt_irq_disable_all();
    169c:	fef42023          	sw	a5,-32(s0)
    sp->irq_enable |= ALTERA_AVALON_JTAG_UART_CONTROL_RE_MSK;
    16a0:	fcc42783          	lw	a5,-52(s0)
    16a4:	0207a783          	lw	a5,32(a5)
    16a8:	0017e713          	or	a4,a5,1
    16ac:	fcc42783          	lw	a5,-52(s0)
    16b0:	02e7a023          	sw	a4,32(a5)
    IOWR_ALTERA_AVALON_JTAG_UART_CONTROL(sp->base, sp->irq_enable);
    16b4:	fcc42783          	lw	a5,-52(s0)
    16b8:	0207a783          	lw	a5,32(a5)
    16bc:	fef42223          	sw	a5,-28(s0)
    16c0:	fcc42783          	lw	a5,-52(s0)
    16c4:	0007a783          	lw	a5,0(a5)
    16c8:	00478793          	add	a5,a5,4
    16cc:	00078713          	mv	a4,a5
    16d0:	fe442783          	lw	a5,-28(s0)
    16d4:	00f72023          	sw	a5,0(a4)
    16d8:	fe042783          	lw	a5,-32(s0)
    16dc:	fef42423          	sw	a5,-24(s0)
    NIOSV_SET_CSR(NIOSV_MSTATUS_CSR, context & NIOSV_MSTATUS_MIE_MASK);
    16e0:	fe842783          	lw	a5,-24(s0)
    16e4:	0087f793          	and	a5,a5,8
    16e8:	3007a073          	csrs	mstatus,a5
}
    16ec:	00000013          	nop
    alt_irq_enable_all(context);
  }

  if (ptr != buffer)
    16f0:	fd042703          	lw	a4,-48(s0)
    16f4:	fc842783          	lw	a5,-56(s0)
    16f8:	00f70a63          	beq	a4,a5,170c <altera_avalon_jtag_uart_read+0x1fc>
    return ptr - buffer;
    16fc:	fd042703          	lw	a4,-48(s0)
    1700:	fc842783          	lw	a5,-56(s0)
    1704:	40f707b3          	sub	a5,a4,a5
    1708:	0200006f          	j	1728 <altera_avalon_jtag_uart_read+0x218>
  else if (flags & O_NONBLOCK)
    170c:	fc042703          	lw	a4,-64(s0)
    1710:	000047b7          	lui	a5,0x4
    1714:	00f777b3          	and	a5,a4,a5
    1718:	00078663          	beqz	a5,1724 <altera_avalon_jtag_uart_read+0x214>
    return -EWOULDBLOCK;
    171c:	ff500793          	li	a5,-11
    1720:	0080006f          	j	1728 <altera_avalon_jtag_uart_read+0x218>
  else
    return -EIO;
    1724:	ffb00793          	li	a5,-5
}
    1728:	00078513          	mv	a0,a5
    172c:	03c12083          	lw	ra,60(sp)
    1730:	03812403          	lw	s0,56(sp)
    1734:	04010113          	add	sp,sp,64
    1738:	00008067          	ret

0000173c <altera_avalon_jtag_uart_write>:
/* ----------------------------------------------------------- */

int 
altera_avalon_jtag_uart_write(altera_avalon_jtag_uart_state* sp, 
  const char * ptr, int count, int flags)
{
    173c:	fc010113          	add	sp,sp,-64
    1740:	02112e23          	sw	ra,60(sp)
    1744:	02812c23          	sw	s0,56(sp)
    1748:	04010413          	add	s0,sp,64
    174c:	fca42623          	sw	a0,-52(s0)
    1750:	fcb42423          	sw	a1,-56(s0)
    1754:	fcc42223          	sw	a2,-60(s0)
    1758:	fcd42023          	sw	a3,-64(s0)
  /* Remove warning at optimisation level 03 by seting out to 0 */
  unsigned int in, out=0;
    175c:	fc042823          	sw	zero,-48(s0)
  unsigned int n;
  alt_irq_context context;

  const char * start = ptr;
    1760:	fc842783          	lw	a5,-56(s0)
    1764:	fcf42c23          	sw	a5,-40(s0)
  ALT_SEM_PEND (sp->write_lock, 0);

  do
  {
    /* Copy as much as we can into the transmit buffer */
    while (count > 0)
    1768:	0ec0006f          	j	1854 <altera_avalon_jtag_uart_write+0x118>
    {
      /* We need a stable value of the out pointer to calculate the space available */
      in  = sp->tx_in;
    176c:	fcc42783          	lw	a5,-52(s0)
    1770:	0307a783          	lw	a5,48(a5) # 4030 <close+0x8>
    1774:	fcf42e23          	sw	a5,-36(s0)
      out = sp->tx_out;
    1778:	fcc42783          	lw	a5,-52(s0)
    177c:	0347a783          	lw	a5,52(a5)
    1780:	fcf42823          	sw	a5,-48(s0)

      if (in < out)
    1784:	fdc42703          	lw	a4,-36(s0)
    1788:	fd042783          	lw	a5,-48(s0)
    178c:	00f77e63          	bgeu	a4,a5,17a8 <altera_avalon_jtag_uart_write+0x6c>
        n = out - 1 - in;
    1790:	fd042703          	lw	a4,-48(s0)
    1794:	fdc42783          	lw	a5,-36(s0)
    1798:	40f707b3          	sub	a5,a4,a5
    179c:	fff78793          	add	a5,a5,-1
    17a0:	fcf42a23          	sw	a5,-44(s0)
    17a4:	0340006f          	j	17d8 <altera_avalon_jtag_uart_write+0x9c>
      else if (out > 0)
    17a8:	fd042783          	lw	a5,-48(s0)
    17ac:	00078e63          	beqz	a5,17c8 <altera_avalon_jtag_uart_write+0x8c>
        n = ALTERA_AVALON_JTAG_UART_BUF_LEN - in;
    17b0:	000017b7          	lui	a5,0x1
    17b4:	80078713          	add	a4,a5,-2048 # 800 <decrypt+0xc>
    17b8:	fdc42783          	lw	a5,-36(s0)
    17bc:	40f707b3          	sub	a5,a4,a5
    17c0:	fcf42a23          	sw	a5,-44(s0)
    17c4:	0140006f          	j	17d8 <altera_avalon_jtag_uart_write+0x9c>
      else
        n = ALTERA_AVALON_JTAG_UART_BUF_LEN - 1 - in;
    17c8:	7ff00713          	li	a4,2047
    17cc:	fdc42783          	lw	a5,-36(s0)
    17d0:	40f707b3          	sub	a5,a4,a5
    17d4:	fcf42a23          	sw	a5,-44(s0)

      if (n == 0)
    17d8:	fd442783          	lw	a5,-44(s0)
    17dc:	08078263          	beqz	a5,1860 <altera_avalon_jtag_uart_write+0x124>
        break;

      if (n > count)
    17e0:	fc442783          	lw	a5,-60(s0)
    17e4:	fd442703          	lw	a4,-44(s0)
    17e8:	00e7f663          	bgeu	a5,a4,17f4 <altera_avalon_jtag_uart_write+0xb8>
        n = count;
    17ec:	fc442783          	lw	a5,-60(s0)
    17f0:	fcf42a23          	sw	a5,-44(s0)

      memcpy(sp->tx_buf + in, ptr, n);
    17f4:	fcc42703          	lw	a4,-52(s0)
    17f8:	000017b7          	lui	a5,0x1
    17fc:	83878793          	add	a5,a5,-1992 # 838 <decrypt+0x44>
    1800:	00f70733          	add	a4,a4,a5
    1804:	fdc42783          	lw	a5,-36(s0)
    1808:	00f707b3          	add	a5,a4,a5
    180c:	fd442603          	lw	a2,-44(s0)
    1810:	fc842583          	lw	a1,-56(s0)
    1814:	00078513          	mv	a0,a5
    1818:	275020ef          	jal	428c <memcpy>
      ptr   += n;
    181c:	fc842703          	lw	a4,-56(s0)
    1820:	fd442783          	lw	a5,-44(s0)
    1824:	00f707b3          	add	a5,a4,a5
    1828:	fcf42423          	sw	a5,-56(s0)
      count -= n;
    182c:	fc442703          	lw	a4,-60(s0)
    1830:	fd442783          	lw	a5,-44(s0)
    1834:	40f707b3          	sub	a5,a4,a5
    1838:	fcf42223          	sw	a5,-60(s0)

      sp->tx_in = (in + n) % ALTERA_AVALON_JTAG_UART_BUF_LEN;
    183c:	fdc42703          	lw	a4,-36(s0)
    1840:	fd442783          	lw	a5,-44(s0)
    1844:	00f707b3          	add	a5,a4,a5
    1848:	7ff7f713          	and	a4,a5,2047
    184c:	fcc42783          	lw	a5,-52(s0)
    1850:	02e7a823          	sw	a4,48(a5)
    while (count > 0)
    1854:	fc442783          	lw	a5,-60(s0)
    1858:	f0f04ae3          	bgtz	a5,176c <altera_avalon_jtag_uart_write+0x30>
    185c:	0080006f          	j	1864 <altera_avalon_jtag_uart_write+0x128>
        break;
    1860:	00000013          	nop
    NIOSV_READ_AND_CLR_CSR(NIOSV_MSTATUS_CSR, context, NIOSV_MSTATUS_MIE_MASK);
    1864:	00800793          	li	a5,8
    1868:	3007b7f3          	csrrc	a5,mstatus,a5
    186c:	fef42623          	sw	a5,-20(s0)
    return context;
    1870:	fec42783          	lw	a5,-20(s0)
     * to enable interrupts if there is no space left in the FIFO
     *
     * For now kick the interrupt routine every time to make it transmit 
     * the data 
     */
    context = alt_irq_disable_all();
    1874:	fef42023          	sw	a5,-32(s0)
    sp->irq_enable |= ALTERA_AVALON_JTAG_UART_CONTROL_WE_MSK;
    1878:	fcc42783          	lw	a5,-52(s0)
    187c:	0207a783          	lw	a5,32(a5)
    1880:	0027e713          	or	a4,a5,2
    1884:	fcc42783          	lw	a5,-52(s0)
    1888:	02e7a023          	sw	a4,32(a5)
    IOWR_ALTERA_AVALON_JTAG_UART_CONTROL(sp->base, sp->irq_enable);
    188c:	fcc42783          	lw	a5,-52(s0)
    1890:	0207a783          	lw	a5,32(a5)
    1894:	fef42223          	sw	a5,-28(s0)
    1898:	fcc42783          	lw	a5,-52(s0)
    189c:	0007a783          	lw	a5,0(a5)
    18a0:	00478793          	add	a5,a5,4
    18a4:	00078713          	mv	a4,a5
    18a8:	fe442783          	lw	a5,-28(s0)
    18ac:	00f72023          	sw	a5,0(a4)
    18b0:	fe042783          	lw	a5,-32(s0)
    18b4:	fef42423          	sw	a5,-24(s0)
    NIOSV_SET_CSR(NIOSV_MSTATUS_CSR, context & NIOSV_MSTATUS_MIE_MASK);
    18b8:	fe842783          	lw	a5,-24(s0)
    18bc:	0087f793          	and	a5,a5,8
    18c0:	3007a073          	csrs	mstatus,a5
}
    18c4:	00000013          	nop
    /* 
     * If there is any data left then either return now or block until 
     * some has been sent 
     */
    /* consider: test whether there is anything there while doing this and delay for at most 2s. */
    if (count > 0)
    18c8:	fc442783          	lw	a5,-60(s0)
    18cc:	04f05463          	blez	a5,1914 <altera_avalon_jtag_uart_write+0x1d8>
    {
      if (flags & O_NONBLOCK)
    18d0:	fc042703          	lw	a4,-64(s0)
    18d4:	000047b7          	lui	a5,0x4
    18d8:	00f777b3          	and	a5,a4,a5
    18dc:	04079263          	bnez	a5,1920 <altera_avalon_jtag_uart_write+0x1e4>
      /*
       * No OS present: Always wait for data to be removed from buffer.  Once
       * the interrupt routine has removed some data then we will be able to
       * insert some more.
       */
      while (out == sp->tx_out && sp->host_inactive < sp->timeout)
    18e0:	00000013          	nop
    18e4:	fcc42783          	lw	a5,-52(s0)
    18e8:	0347a783          	lw	a5,52(a5) # 4034 <_fclose_r>
    18ec:	fd042703          	lw	a4,-48(s0)
    18f0:	00f71c63          	bne	a4,a5,1908 <altera_avalon_jtag_uart_write+0x1cc>
    18f4:	fcc42783          	lw	a5,-52(s0)
    18f8:	0247a703          	lw	a4,36(a5)
    18fc:	fcc42783          	lw	a5,-52(s0)
    1900:	0047a783          	lw	a5,4(a5)
    1904:	fef760e3          	bltu	a4,a5,18e4 <altera_avalon_jtag_uart_write+0x1a8>
        ;
#endif /* __ucosii__ */

      if  (sp->host_inactive)
    1908:	fcc42783          	lw	a5,-52(s0)
    190c:	0247a783          	lw	a5,36(a5)
    1910:	00079c63          	bnez	a5,1928 <altera_avalon_jtag_uart_write+0x1ec>
         break;
    }
  }
  while (count > 0);
    1914:	fc442783          	lw	a5,-60(s0)
    1918:	f2f04ee3          	bgtz	a5,1854 <altera_avalon_jtag_uart_write+0x118>
    191c:	0100006f          	j	192c <altera_avalon_jtag_uart_write+0x1f0>
        break;
    1920:	00000013          	nop
    1924:	0080006f          	j	192c <altera_avalon_jtag_uart_write+0x1f0>
         break;
    1928:	00000013          	nop
   * Now that access to the circular buffer is complete, release the write
   * semaphore so that other threads can access the buffer.
   */
  ALT_SEM_POST (sp->write_lock);

  if (ptr != start)
    192c:	fc842703          	lw	a4,-56(s0)
    1930:	fd842783          	lw	a5,-40(s0)
    1934:	00f70a63          	beq	a4,a5,1948 <altera_avalon_jtag_uart_write+0x20c>
    return ptr - start;
    1938:	fc842703          	lw	a4,-56(s0)
    193c:	fd842783          	lw	a5,-40(s0)
    1940:	40f707b3          	sub	a5,a4,a5
    1944:	0200006f          	j	1964 <altera_avalon_jtag_uart_write+0x228>
  else if (flags & O_NONBLOCK)
    1948:	fc042703          	lw	a4,-64(s0)
    194c:	000047b7          	lui	a5,0x4
    1950:	00f777b3          	and	a5,a4,a5
    1954:	00078663          	beqz	a5,1960 <altera_avalon_jtag_uart_write+0x224>
    return -EWOULDBLOCK;
    1958:	ff500793          	li	a5,-11
    195c:	0080006f          	j	1964 <altera_avalon_jtag_uart_write+0x228>
    sp->tx_out = sp->tx_in = 0;
    return ptr - start + count;
  }
#endif
  else
    return -EIO; /* Host not connected */
    1960:	ffb00793          	li	a5,-5
}
    1964:	00078513          	mv	a0,a5
    1968:	03c12083          	lw	ra,60(sp)
    196c:	03812403          	lw	s0,56(sp)
    1970:	04010113          	add	sp,sp,64
    1974:	00008067          	ret

00001978 <alt_alarm_start>:
 */ 

int alt_alarm_start (alt_alarm* alarm, alt_u32 nticks,
                     alt_u32 (*callback) (void* context),
                     void* context)
{
    1978:	fc010113          	add	sp,sp,-64
    197c:	02812e23          	sw	s0,60(sp)
    1980:	04010413          	add	s0,sp,64
    1984:	fca42623          	sw	a0,-52(s0)
    1988:	fcb42423          	sw	a1,-56(s0)
    198c:	fcc42223          	sw	a2,-60(s0)
    1990:	fcd42023          	sw	a3,-64(s0)
  alt_irq_context irq_context;
  alt_u64 current_nticks = 0;
    1994:	00000713          	li	a4,0
    1998:	00000793          	li	a5,0
    199c:	fee42423          	sw	a4,-24(s0)
    19a0:	fef42623          	sw	a5,-20(s0)
    19a4:	0001a7b7          	lui	a5,0x1a
    19a8:	b807a783          	lw	a5,-1152(a5) # 19b80 <_alt_tick_rate>
  
  if (alt_ticks_per_second ())
    19ac:	12078063          	beqz	a5,1acc <alt_alarm_start+0x154>
  {
    if (alarm)
    19b0:	fcc42783          	lw	a5,-52(s0)
    19b4:	10078863          	beqz	a5,1ac4 <alt_alarm_start+0x14c>
    {
      alarm->callback = callback;
    19b8:	fcc42783          	lw	a5,-52(s0)
    19bc:	fc442703          	lw	a4,-60(s0)
    19c0:	00e7a823          	sw	a4,16(a5)
      alarm->context  = context;
    19c4:	fcc42783          	lw	a5,-52(s0)
    19c8:	fc042703          	lw	a4,-64(s0)
    19cc:	00e7aa23          	sw	a4,20(a5)
    NIOSV_READ_AND_CLR_CSR(NIOSV_MSTATUS_CSR, context, NIOSV_MSTATUS_MIE_MASK);
    19d0:	00800793          	li	a5,8
    19d4:	3007b7f3          	csrrc	a5,mstatus,a5
    19d8:	fef42223          	sw	a5,-28(s0)
    return context;
    19dc:	fe442783          	lw	a5,-28(s0)
 
      irq_context = alt_irq_disable_all ();
    19e0:	fcf42a23          	sw	a5,-44(s0)
 * alt_nticks() returns the elapsed number of system clock ticks since reset.
 */

static ALT_INLINE alt_u64 ALT_ALWAYS_INLINE alt_nticks (void)
{
  return _alt_nticks;
    19e4:	0001a7b7          	lui	a5,0x1a
    19e8:	b887a703          	lw	a4,-1144(a5) # 19b88 <_alt_nticks>
    19ec:	b8c7a783          	lw	a5,-1140(a5)
      
      current_nticks = alt_nticks();
    19f0:	fee42423          	sw	a4,-24(s0)
    19f4:	fef42623          	sw	a5,-20(s0)
      
      alarm->time = (alt_u64)nticks + current_nticks + 1; 
    19f8:	fc842783          	lw	a5,-56(s0)
    19fc:	00078813          	mv	a6,a5
    1a00:	00000893          	li	a7,0
    1a04:	fe842603          	lw	a2,-24(s0)
    1a08:	fec42683          	lw	a3,-20(s0)
    1a0c:	00c80733          	add	a4,a6,a2
    1a10:	00070593          	mv	a1,a4
    1a14:	0105b5b3          	sltu	a1,a1,a6
    1a18:	00d887b3          	add	a5,a7,a3
    1a1c:	00f586b3          	add	a3,a1,a5
    1a20:	00068793          	mv	a5,a3
    1a24:	00070613          	mv	a2,a4
    1a28:	00078693          	mv	a3,a5
    1a2c:	00100513          	li	a0,1
    1a30:	00000593          	li	a1,0
    1a34:	00a60733          	add	a4,a2,a0
    1a38:	00070813          	mv	a6,a4
    1a3c:	00c83833          	sltu	a6,a6,a2
    1a40:	00b687b3          	add	a5,a3,a1
    1a44:	00f806b3          	add	a3,a6,a5
    1a48:	00068793          	mv	a5,a3
    1a4c:	fcc42683          	lw	a3,-52(s0)
    1a50:	00e6a423          	sw	a4,8(a3)
    1a54:	00f6a623          	sw	a5,12(a3)
          
      alt_llist_insert (&alt_alarm_list, &alarm->llist);
    1a58:	fcc42783          	lw	a5,-52(s0)
    1a5c:	81818713          	add	a4,gp,-2024 # 18270 <alt_alarm_list>
    1a60:	fce42e23          	sw	a4,-36(s0)
    1a64:	fef42023          	sw	a5,-32(s0)
 */

static ALT_INLINE void ALT_ALWAYS_INLINE alt_llist_insert(alt_llist* list, 
                alt_llist* entry)
{
  entry->previous = list;
    1a68:	fe042783          	lw	a5,-32(s0)
    1a6c:	fdc42703          	lw	a4,-36(s0)
    1a70:	00e7a223          	sw	a4,4(a5)
  entry->next     = list->next;
    1a74:	fdc42783          	lw	a5,-36(s0)
    1a78:	0007a703          	lw	a4,0(a5)
    1a7c:	fe042783          	lw	a5,-32(s0)
    1a80:	00e7a023          	sw	a4,0(a5)

  list->next->previous = entry;
    1a84:	fdc42783          	lw	a5,-36(s0)
    1a88:	0007a783          	lw	a5,0(a5)
    1a8c:	fe042703          	lw	a4,-32(s0)
    1a90:	00e7a223          	sw	a4,4(a5)
  list->next           = entry;
    1a94:	fdc42783          	lw	a5,-36(s0)
    1a98:	fe042703          	lw	a4,-32(s0)
    1a9c:	00e7a023          	sw	a4,0(a5)
}
    1aa0:	00000013          	nop
    1aa4:	fd442783          	lw	a5,-44(s0)
    1aa8:	fcf42c23          	sw	a5,-40(s0)
    NIOSV_SET_CSR(NIOSV_MSTATUS_CSR, context & NIOSV_MSTATUS_MIE_MASK);
    1aac:	fd842783          	lw	a5,-40(s0)
    1ab0:	0087f793          	and	a5,a5,8
    1ab4:	3007a073          	csrs	mstatus,a5
}
    1ab8:	00000013          	nop
      alt_irq_enable_all (irq_context);

      return 0;
    1abc:	00000793          	li	a5,0
    1ac0:	0100006f          	j	1ad0 <alt_alarm_start+0x158>
    }
    else
    {
      return -EINVAL;
    1ac4:	fea00793          	li	a5,-22
    1ac8:	0080006f          	j	1ad0 <alt_alarm_start+0x158>
    }
  }
  else
  {
    return -ENOTSUP;
    1acc:	f7a00793          	li	a5,-134
  }
}
    1ad0:	00078513          	mv	a0,a5
    1ad4:	03c12403          	lw	s0,60(sp)
    1ad8:	04010113          	add	sp,sp,64
    1adc:	00008067          	ret

00001ae0 <alt_dcache_flush_all>:

/*
 * alt_dcache_flush_all() is called to flush the entire data cache.
 */
void alt_dcache_flush_all (void)
{
    1ae0:	ff010113          	add	sp,sp,-16
    1ae4:	00812623          	sw	s0,12(sp)
    1ae8:	01010413          	add	s0,sp,16
    for (i = (char*)0; i < (char*) ALT_CPU_DCACHE_SIZE; i+= ALT_CPU_DCACHE_LINE_SIZE)
    { 
      DCACHE_CLEAN_BY_INDEX_VAL(i); 
    }
#endif
}
    1aec:	00000013          	nop
    1af0:	00c12403          	lw	s0,12(sp)
    1af4:	01010113          	add	sp,sp,16
    1af8:	00008067          	ret

00001afc <alt_dev_null_write>:
 * by the alt_dev_null device. It simple discards all data passed to it, and
 * indicates that the data has been successfully transmitted.
 */

static int alt_dev_null_write (alt_fd* fd, const char* ptr, int len)
{
    1afc:	fe010113          	add	sp,sp,-32
    1b00:	00812e23          	sw	s0,28(sp)
    1b04:	02010413          	add	s0,sp,32
    1b08:	fea42623          	sw	a0,-20(s0)
    1b0c:	feb42423          	sw	a1,-24(s0)
    1b10:	fec42223          	sw	a2,-28(s0)
  return len;
    1b14:	fe442783          	lw	a5,-28(s0)
}
    1b18:	00078513          	mv	a0,a5
    1b1c:	01c12403          	lw	s0,28(sp)
    1b20:	02010113          	add	sp,sp,32
    1b24:	00008067          	ret

00001b28 <alt_dev_reg>:
    }
    /* all other elements are set to zero */
  };
  
int alt_dev_reg (alt_dev* dev)
{
    1b28:	fe010113          	add	sp,sp,-32
    1b2c:	00112e23          	sw	ra,28(sp)
    1b30:	00812c23          	sw	s0,24(sp)
    1b34:	02010413          	add	s0,sp,32
    1b38:	fea42623          	sw	a0,-20(s0)
    return alt_dev_llist_insert ((alt_dev_llist*) dev, &alt_dev_list);
    1b3c:	000187b7          	lui	a5,0x18
    1b40:	26078593          	add	a1,a5,608 # 18260 <alt_dev_list>
    1b44:	fec42503          	lw	a0,-20(s0)
    1b48:	060000ef          	jal	1ba8 <alt_dev_llist_insert>
    1b4c:	00050793          	mv	a5,a0
}
    1b50:	00078513          	mv	a0,a5
    1b54:	01c12083          	lw	ra,28(sp)
    1b58:	01812403          	lw	s0,24(sp)
    1b5c:	02010113          	add	sp,sp,32
    1b60:	00008067          	ret

00001b64 <alt_get_errno>:
    1b64:	ff010113          	add	sp,sp,-16
    1b68:	00112623          	sw	ra,12(sp)
    1b6c:	00812423          	sw	s0,8(sp)
    1b70:	01010413          	add	s0,sp,16
    1b74:	8141a783          	lw	a5,-2028(gp) # 1826c <alt_errno>
    1b78:	00078a63          	beqz	a5,1b8c <alt_get_errno+0x28>
    1b7c:	8141a783          	lw	a5,-2028(gp) # 1826c <alt_errno>
    1b80:	000780e7          	jalr	a5
    1b84:	00050793          	mv	a5,a0
    1b88:	00c0006f          	j	1b94 <alt_get_errno+0x30>
    1b8c:	0001a7b7          	lui	a5,0x1a
    1b90:	b9878793          	add	a5,a5,-1128 # 19b98 <errno>
    1b94:	00078513          	mv	a0,a5
    1b98:	00c12083          	lw	ra,12(sp)
    1b9c:	00812403          	lw	s0,8(sp)
    1ba0:	01010113          	add	sp,sp,16
    1ba4:	00008067          	ret

00001ba8 <alt_dev_llist_insert>:
{
    1ba8:	fd010113          	add	sp,sp,-48
    1bac:	02112623          	sw	ra,44(sp)
    1bb0:	02812423          	sw	s0,40(sp)
    1bb4:	03010413          	add	s0,sp,48
    1bb8:	fca42e23          	sw	a0,-36(s0)
    1bbc:	fcb42c23          	sw	a1,-40(s0)
  if (!dev || !dev->name)
    1bc0:	fdc42783          	lw	a5,-36(s0)
    1bc4:	00078863          	beqz	a5,1bd4 <alt_dev_llist_insert+0x2c>
    1bc8:	fdc42783          	lw	a5,-36(s0)
    1bcc:	0087a783          	lw	a5,8(a5)
    1bd0:	00079e63          	bnez	a5,1bec <alt_dev_llist_insert+0x44>
    ALT_ERRNO = EINVAL;
    1bd4:	f91ff0ef          	jal	1b64 <alt_get_errno>
    1bd8:	00050713          	mv	a4,a0
    1bdc:	01600793          	li	a5,22
    1be0:	00f72023          	sw	a5,0(a4)
    return -EINVAL;
    1be4:	fea00793          	li	a5,-22
    1be8:	0540006f          	j	1c3c <alt_dev_llist_insert+0x94>
  alt_llist_insert(list, &dev->llist);
    1bec:	fdc42783          	lw	a5,-36(s0)
    1bf0:	fd842703          	lw	a4,-40(s0)
    1bf4:	fee42423          	sw	a4,-24(s0)
    1bf8:	fef42623          	sw	a5,-20(s0)
  entry->previous = list;
    1bfc:	fec42783          	lw	a5,-20(s0)
    1c00:	fe842703          	lw	a4,-24(s0)
    1c04:	00e7a223          	sw	a4,4(a5)
  entry->next     = list->next;
    1c08:	fe842783          	lw	a5,-24(s0)
    1c0c:	0007a703          	lw	a4,0(a5)
    1c10:	fec42783          	lw	a5,-20(s0)
    1c14:	00e7a023          	sw	a4,0(a5)
  list->next->previous = entry;
    1c18:	fe842783          	lw	a5,-24(s0)
    1c1c:	0007a783          	lw	a5,0(a5)
    1c20:	fec42703          	lw	a4,-20(s0)
    1c24:	00e7a223          	sw	a4,4(a5)
  list->next           = entry;
    1c28:	fe842783          	lw	a5,-24(s0)
    1c2c:	fec42703          	lw	a4,-20(s0)
    1c30:	00e7a023          	sw	a4,0(a5)
}
    1c34:	00000013          	nop
  return 0;  
    1c38:	00000793          	li	a5,0
}
    1c3c:	00078513          	mv	a0,a5
    1c40:	02c12083          	lw	ra,44(sp)
    1c44:	02812403          	lw	s0,40(sp)
    1c48:	03010113          	add	sp,sp,48
    1c4c:	00008067          	ret

00001c50 <_do_ctors>:
/*
 * Run the C++ static constructors.
 */

void _do_ctors(void)
{
    1c50:	fe010113          	add	sp,sp,-32
    1c54:	00112e23          	sw	ra,28(sp)
    1c58:	00812c23          	sw	s0,24(sp)
    1c5c:	02010413          	add	s0,sp,32
  constructor* ctor;

  for (ctor = __init_array_start; ctor < __init_array_end; ctor++)
    1c60:	000167b7          	lui	a5,0x16
    1c64:	cac78793          	add	a5,a5,-852 # 15cac <__init_array_start>
    1c68:	fef42623          	sw	a5,-20(s0)
    1c6c:	01c0006f          	j	1c88 <_do_ctors+0x38>
        (*ctor) (); 
    1c70:	fec42783          	lw	a5,-20(s0)
    1c74:	0007a783          	lw	a5,0(a5)
    1c78:	000780e7          	jalr	a5
  for (ctor = __init_array_start; ctor < __init_array_end; ctor++)
    1c7c:	fec42783          	lw	a5,-20(s0)
    1c80:	00478793          	add	a5,a5,4
    1c84:	fef42623          	sw	a5,-20(s0)
    1c88:	fec42703          	lw	a4,-20(s0)
    1c8c:	000167b7          	lui	a5,0x16
    1c90:	cb478793          	add	a5,a5,-844 # 15cb4 <__fini_array_end>
    1c94:	fcf76ee3          	bltu	a4,a5,1c70 <_do_ctors+0x20>
}
    1c98:	00000013          	nop
    1c9c:	00000013          	nop
    1ca0:	01c12083          	lw	ra,28(sp)
    1ca4:	01812403          	lw	s0,24(sp)
    1ca8:	02010113          	add	sp,sp,32
    1cac:	00008067          	ret

00001cb0 <_do_dtors>:
/*
 * Run the C++ static destructors.
 */

void _do_dtors(void)
{
    1cb0:	fe010113          	add	sp,sp,-32
    1cb4:	00112e23          	sw	ra,28(sp)
    1cb8:	00812c23          	sw	s0,24(sp)
    1cbc:	02010413          	add	s0,sp,32
  destructor* dtor;

  for (dtor = &__fini_array_end[-1]; dtor >= __fini_array_start; dtor--)
    1cc0:	000167b7          	lui	a5,0x16
    1cc4:	cb078793          	add	a5,a5,-848 # 15cb0 <__init_array_start+0x4>
    1cc8:	fef42623          	sw	a5,-20(s0)
    1ccc:	01c0006f          	j	1ce8 <_do_dtors+0x38>
        (*dtor) (); 
    1cd0:	fec42783          	lw	a5,-20(s0)
    1cd4:	0007a783          	lw	a5,0(a5)
    1cd8:	000780e7          	jalr	a5
  for (dtor = &__fini_array_end[-1]; dtor >= __fini_array_start; dtor--)
    1cdc:	fec42783          	lw	a5,-20(s0)
    1ce0:	ffc78793          	add	a5,a5,-4
    1ce4:	fef42623          	sw	a5,-20(s0)
    1ce8:	fec42703          	lw	a4,-20(s0)
    1cec:	000167b7          	lui	a5,0x16
    1cf0:	cb478793          	add	a5,a5,-844 # 15cb4 <__fini_array_end>
    1cf4:	fcf77ee3          	bgeu	a4,a5,1cd0 <_do_dtors+0x20>
}
    1cf8:	00000013          	nop
    1cfc:	00000013          	nop
    1d00:	01c12083          	lw	ra,28(sp)
    1d04:	01812403          	lw	s0,24(sp)
    1d08:	02010113          	add	sp,sp,32
    1d0c:	00008067          	ret

00001d10 <alt_icache_flush_all>:
/*
 * alt_icache_flush_all() is called to flush the entire instruction cache.
 */

void alt_icache_flush_all (void)
{
    1d10:	ff010113          	add	sp,sp,-16
    1d14:	00812623          	sw	s0,12(sp)
    1d18:	01010413          	add	s0,sp,16
#if ALT_CPU_ICACHE_SIZE > 0
    __asm__ volatile("fence.i" ::: "memory");
#endif
}
    1d1c:	00000013          	nop
    1d20:	00c12403          	lw	s0,12(sp)
    1d24:	01010113          	add	sp,sp,16
    1d28:	00008067          	ret

00001d2c <alt_ic_isr_register>:
  * @return                 0 if successful, else error (-1)
  */
int 
alt_ic_isr_register(alt_u32 ic_id, alt_u32 irq, alt_isr_func isr, 
  void *isr_context, void *flags)
{
    1d2c:	fd010113          	add	sp,sp,-48
    1d30:	02112623          	sw	ra,44(sp)
    1d34:	02812423          	sw	s0,40(sp)
    1d38:	03010413          	add	s0,sp,48
    1d3c:	fea42623          	sw	a0,-20(s0)
    1d40:	feb42423          	sw	a1,-24(s0)
    1d44:	fec42223          	sw	a2,-28(s0)
    1d48:	fed42023          	sw	a3,-32(s0)
    1d4c:	fce42e23          	sw	a4,-36(s0)
    return alt_iic_isr_register(ic_id, irq, isr, isr_context, flags);
    1d50:	fdc42703          	lw	a4,-36(s0)
    1d54:	fe042683          	lw	a3,-32(s0)
    1d58:	fe442603          	lw	a2,-28(s0)
    1d5c:	fe842583          	lw	a1,-24(s0)
    1d60:	fec42503          	lw	a0,-20(s0)
    1d64:	01c000ef          	jal	1d80 <alt_iic_isr_register>
    1d68:	00050793          	mv	a5,a0
}  
    1d6c:	00078513          	mv	a0,a5
    1d70:	02c12083          	lw	ra,44(sp)
    1d74:	02812403          	lw	s0,40(sp)
    1d78:	03010113          	add	sp,sp,48
    1d7c:	00008067          	ret

00001d80 <alt_iic_isr_register>:
  * @param flags            
  * @return                 0 if successful, else error (-1)
  */
int alt_iic_isr_register(alt_u32 ic_id, alt_u32 irq, alt_isr_func isr, 
  void *isr_context, void *flags)
{
    1d80:	fa010113          	add	sp,sp,-96
    1d84:	04812e23          	sw	s0,92(sp)
    1d88:	06010413          	add	s0,sp,96
    1d8c:	faa42e23          	sw	a0,-68(s0)
    1d90:	fab42c23          	sw	a1,-72(s0)
    1d94:	fac42a23          	sw	a2,-76(s0)
    1d98:	fad42823          	sw	a3,-80(s0)
    1d9c:	fae42623          	sw	a4,-84(s0)
  int rc = -EINVAL;  
    1da0:	fea00793          	li	a5,-22
    1da4:	fcf42223          	sw	a5,-60(s0)
  int id = irq;             /* IRQ interpreted as the interrupt ID. */
    1da8:	fb842783          	lw	a5,-72(s0)
    1dac:	fcf42423          	sw	a5,-56(s0)
  alt_irq_context status;

  if (id < ALT_NIRQ)
    1db0:	fc842703          	lw	a4,-56(s0)
    1db4:	00f00793          	li	a5,15
    1db8:	12e7c863          	blt	a5,a4,1ee8 <alt_iic_isr_register+0x168>
    NIOSV_READ_AND_CLR_CSR(NIOSV_MSTATUS_CSR, context, NIOSV_MSTATUS_MIE_MASK);
    1dbc:	00800793          	li	a5,8
    1dc0:	3007b7f3          	csrrc	a5,mstatus,a5
    1dc4:	fcf42823          	sw	a5,-48(s0)
    return context;
    1dc8:	fd042783          	lw	a5,-48(s0)
     * interrupts are disabled while the handler tables are updated to ensure
     * that an interrupt doesn't occur while the tables are in an inconsistant
     * state.
     */

    status = alt_irq_disable_all();
    1dcc:	fcf42623          	sw	a5,-52(s0)

    alt_irq[id].handler = isr;
    1dd0:	0001a7b7          	lui	a5,0x1a
    1dd4:	bd878713          	add	a4,a5,-1064 # 19bd8 <alt_irq>
    1dd8:	fc842783          	lw	a5,-56(s0)
    1ddc:	00379793          	sll	a5,a5,0x3
    1de0:	00f707b3          	add	a5,a4,a5
    1de4:	fb442703          	lw	a4,-76(s0)
    1de8:	00e7a023          	sw	a4,0(a5)
    alt_irq[id].context = isr_context;
    1dec:	0001a7b7          	lui	a5,0x1a
    1df0:	bd878713          	add	a4,a5,-1064 # 19bd8 <alt_irq>
    1df4:	fc842783          	lw	a5,-56(s0)
    1df8:	00379793          	sll	a5,a5,0x3
    1dfc:	00f707b3          	add	a5,a4,a5
    1e00:	fb042703          	lw	a4,-80(s0)
    1e04:	00e7a223          	sw	a4,4(a5)

    rc = (isr) ? alt_ic_irq_enable(ic_id, id) : alt_ic_irq_disable(ic_id, id);
    1e08:	fb442783          	lw	a5,-76(s0)
    1e0c:	06078263          	beqz	a5,1e70 <alt_iic_isr_register+0xf0>
    1e10:	fc842783          	lw	a5,-56(s0)
    1e14:	fbc42703          	lw	a4,-68(s0)
    1e18:	fce42a23          	sw	a4,-44(s0)
    1e1c:	fcf42c23          	sw	a5,-40(s0)
    int rc = ALT_REMAP_IRQ_NUM(irq);
    1e20:	fd842703          	lw	a4,-40(s0)
    1e24:	00f00793          	li	a5,15
    1e28:	00e7e863          	bltu	a5,a4,1e38 <alt_iic_isr_register+0xb8>
    1e2c:	fd842783          	lw	a5,-40(s0)
    1e30:	01078793          	add	a5,a5,16
    1e34:	0080006f          	j	1e3c <alt_iic_isr_register+0xbc>
    1e38:	fff00793          	li	a5,-1
    1e3c:	fcf42e23          	sw	a5,-36(s0)
    if (rc < 0)
    1e40:	fdc42783          	lw	a5,-36(s0)
    1e44:	0007d663          	bgez	a5,1e50 <alt_iic_isr_register+0xd0>
        return rc;
    1e48:	fdc42783          	lw	a5,-36(s0)
    1e4c:	0800006f          	j	1ecc <alt_iic_isr_register+0x14c>
        irq = (alt_u32)rc;
    1e50:	fdc42783          	lw	a5,-36(s0)
    1e54:	fcf42c23          	sw	a5,-40(s0)
    NIOSV_SET_CSR(NIOSV_MIE_CSR, 0x1 << irq);
    1e58:	fd842783          	lw	a5,-40(s0)
    1e5c:	00100713          	li	a4,1
    1e60:	00f717b3          	sll	a5,a4,a5
    1e64:	3047a073          	csrs	mie,a5
    return 0;
    1e68:	00000793          	li	a5,0
    1e6c:	0600006f          	j	1ecc <alt_iic_isr_register+0x14c>
    1e70:	fc842783          	lw	a5,-56(s0)
    1e74:	fbc42703          	lw	a4,-68(s0)
    1e78:	fee42023          	sw	a4,-32(s0)
    1e7c:	fef42223          	sw	a5,-28(s0)
    int rc = ALT_REMAP_IRQ_NUM(irq);
    1e80:	fe442703          	lw	a4,-28(s0)
    1e84:	00f00793          	li	a5,15
    1e88:	00e7e863          	bltu	a5,a4,1e98 <alt_iic_isr_register+0x118>
    1e8c:	fe442783          	lw	a5,-28(s0)
    1e90:	01078793          	add	a5,a5,16
    1e94:	0080006f          	j	1e9c <alt_iic_isr_register+0x11c>
    1e98:	fff00793          	li	a5,-1
    1e9c:	fef42423          	sw	a5,-24(s0)
    if (rc < 0)
    1ea0:	fe842783          	lw	a5,-24(s0)
    1ea4:	0007d663          	bgez	a5,1eb0 <alt_iic_isr_register+0x130>
        return rc;
    1ea8:	fe842783          	lw	a5,-24(s0)
    1eac:	0200006f          	j	1ecc <alt_iic_isr_register+0x14c>
        irq = (alt_u32)rc;
    1eb0:	fe842783          	lw	a5,-24(s0)
    1eb4:	fef42223          	sw	a5,-28(s0)
    NIOSV_CLR_CSR(NIOSV_MIE_CSR, 0x1 << irq);
    1eb8:	fe442783          	lw	a5,-28(s0)
    1ebc:	00100713          	li	a4,1
    1ec0:	00f717b3          	sll	a5,a4,a5
    1ec4:	3047b073          	csrc	mie,a5
    return 0;
    1ec8:	00000793          	li	a5,0
    1ecc:	fcf42223          	sw	a5,-60(s0)
    1ed0:	fcc42783          	lw	a5,-52(s0)
    1ed4:	fef42623          	sw	a5,-20(s0)
    NIOSV_SET_CSR(NIOSV_MSTATUS_CSR, context & NIOSV_MSTATUS_MIE_MASK);
    1ed8:	fec42783          	lw	a5,-20(s0)
    1edc:	0087f793          	and	a5,a5,8
    1ee0:	3007a073          	csrs	mstatus,a5
}
    1ee4:	00000013          	nop

    alt_irq_enable_all(status);
  }

  return rc; 
    1ee8:	fc442783          	lw	a5,-60(s0)
}
    1eec:	00078513          	mv	a0,a5
    1ef0:	05c12403          	lw	s0,92(sp)
    1ef4:	06010113          	add	sp,sp,96
    1ef8:	00008067          	ret

00001efc <alt_open_fd>:
 * If the device can not be succesfully opened, then the input file descriptor
 * remains unchanged.
 */

static void alt_open_fd(alt_fd* fd, const char* name, int flags, int mode)
{
    1efc:	fd010113          	add	sp,sp,-48
    1f00:	02112623          	sw	ra,44(sp)
    1f04:	02812423          	sw	s0,40(sp)
    1f08:	03010413          	add	s0,sp,48
    1f0c:	fca42e23          	sw	a0,-36(s0)
    1f10:	fcb42c23          	sw	a1,-40(s0)
    1f14:	fcc42a23          	sw	a2,-44(s0)
    1f18:	fcd42823          	sw	a3,-48(s0)
  int old;

  old = open (name, flags, mode);
    1f1c:	fd042603          	lw	a2,-48(s0)
    1f20:	fd442583          	lw	a1,-44(s0)
    1f24:	fd842503          	lw	a0,-40(s0)
    1f28:	7d0000ef          	jal	26f8 <open>
    1f2c:	fea42623          	sw	a0,-20(s0)

  if (old >= 0)
    1f30:	fec42783          	lw	a5,-20(s0)
    1f34:	0807c863          	bltz	a5,1fc4 <alt_open_fd+0xc8>
  {
    fd->dev      = alt_fd_list[old].dev;
    1f38:	000187b7          	lui	a5,0x18
    1f3c:	a3878693          	add	a3,a5,-1480 # 17a38 <alt_fd_list>
    1f40:	fec42703          	lw	a4,-20(s0)
    1f44:	00070793          	mv	a5,a4
    1f48:	00179793          	sll	a5,a5,0x1
    1f4c:	00e787b3          	add	a5,a5,a4
    1f50:	00279793          	sll	a5,a5,0x2
    1f54:	00f687b3          	add	a5,a3,a5
    1f58:	0007a703          	lw	a4,0(a5)
    1f5c:	fdc42783          	lw	a5,-36(s0)
    1f60:	00e7a023          	sw	a4,0(a5)
    fd->priv     = alt_fd_list[old].priv;
    1f64:	000187b7          	lui	a5,0x18
    1f68:	a3878693          	add	a3,a5,-1480 # 17a38 <alt_fd_list>
    1f6c:	fec42703          	lw	a4,-20(s0)
    1f70:	00070793          	mv	a5,a4
    1f74:	00179793          	sll	a5,a5,0x1
    1f78:	00e787b3          	add	a5,a5,a4
    1f7c:	00279793          	sll	a5,a5,0x2
    1f80:	00f687b3          	add	a5,a3,a5
    1f84:	0047a703          	lw	a4,4(a5)
    1f88:	fdc42783          	lw	a5,-36(s0)
    1f8c:	00e7a223          	sw	a4,4(a5)
    fd->fd_flags = alt_fd_list[old].fd_flags;
    1f90:	000187b7          	lui	a5,0x18
    1f94:	a3878693          	add	a3,a5,-1480 # 17a38 <alt_fd_list>
    1f98:	fec42703          	lw	a4,-20(s0)
    1f9c:	00070793          	mv	a5,a4
    1fa0:	00179793          	sll	a5,a5,0x1
    1fa4:	00e787b3          	add	a5,a5,a4
    1fa8:	00279793          	sll	a5,a5,0x2
    1fac:	00f687b3          	add	a5,a3,a5
    1fb0:	0087a703          	lw	a4,8(a5)
    1fb4:	fdc42783          	lw	a5,-36(s0)
    1fb8:	00e7a423          	sw	a4,8(a5)

    alt_release_fd (old);
    1fbc:	fec42503          	lw	a0,-20(s0)
    1fc0:	114000ef          	jal	20d4 <alt_release_fd>
  }
} 
    1fc4:	00000013          	nop
    1fc8:	02c12083          	lw	ra,44(sp)
    1fcc:	02812403          	lw	s0,40(sp)
    1fd0:	03010113          	add	sp,sp,48
    1fd4:	00008067          	ret

00001fd8 <alt_io_redirect>:
 */
 
void alt_io_redirect(const char* stdout_dev, 
                     const char* stdin_dev, 
                     const char* stderr_dev)
{
    1fd8:	fe010113          	add	sp,sp,-32
    1fdc:	00112e23          	sw	ra,28(sp)
    1fe0:	00812c23          	sw	s0,24(sp)
    1fe4:	02010413          	add	s0,sp,32
    1fe8:	fea42623          	sw	a0,-20(s0)
    1fec:	feb42423          	sw	a1,-24(s0)
    1ff0:	fec42223          	sw	a2,-28(s0)
  /* Redirect the channels */

  alt_open_fd (&alt_fd_list[STDOUT_FILENO], stdout_dev, O_WRONLY, 0777);
    1ff4:	1ff00693          	li	a3,511
    1ff8:	00100613          	li	a2,1
    1ffc:	fec42583          	lw	a1,-20(s0)
    2000:	000187b7          	lui	a5,0x18
    2004:	a4478513          	add	a0,a5,-1468 # 17a44 <alt_fd_list+0xc>
    2008:	ef5ff0ef          	jal	1efc <alt_open_fd>
  alt_open_fd (&alt_fd_list[STDIN_FILENO], stdin_dev, O_RDONLY, 0777);
    200c:	1ff00693          	li	a3,511
    2010:	00000613          	li	a2,0
    2014:	fe842583          	lw	a1,-24(s0)
    2018:	000187b7          	lui	a5,0x18
    201c:	a3878513          	add	a0,a5,-1480 # 17a38 <alt_fd_list>
    2020:	eddff0ef          	jal	1efc <alt_open_fd>
  alt_open_fd (&alt_fd_list[STDERR_FILENO], stderr_dev, O_WRONLY, 0777);
    2024:	1ff00693          	li	a3,511
    2028:	00100613          	li	a2,1
    202c:	fe442583          	lw	a1,-28(s0)
    2030:	000187b7          	lui	a5,0x18
    2034:	a5078513          	add	a0,a5,-1456 # 17a50 <alt_fd_list+0x18>
    2038:	ec5ff0ef          	jal	1efc <alt_open_fd>

#ifndef USE_PICOLIBC
  /* Allocate a stream buffer if it is not yet done.
   * And use no buffering mode by default.
   */
  if ((FILE *)stdin->_bf._base == NULL)
    203c:	8201a783          	lw	a5,-2016(gp) # 18278 <_impure_ptr>
    2040:	0047a783          	lw	a5,4(a5)
    2044:	0107a783          	lw	a5,16(a5)
    2048:	02079063          	bnez	a5,2068 <alt_io_redirect+0x90>
  {
    setvbuf(stdin, NULL, _IONBF, 0);
    204c:	8201a783          	lw	a5,-2016(gp) # 18278 <_impure_ptr>
    2050:	0047a783          	lw	a5,4(a5)
    2054:	00000693          	li	a3,0
    2058:	00200613          	li	a2,2
    205c:	00000593          	li	a1,0
    2060:	00078513          	mv	a0,a5
    2064:	4a5000ef          	jal	2d08 <setvbuf>
  }

  if ((FILE *)stdout->_bf._base == NULL)
    2068:	8201a783          	lw	a5,-2016(gp) # 18278 <_impure_ptr>
    206c:	0087a783          	lw	a5,8(a5)
    2070:	0107a783          	lw	a5,16(a5)
    2074:	02079063          	bnez	a5,2094 <alt_io_redirect+0xbc>
  {
    setvbuf(stdout, NULL, _IONBF, 0);
    2078:	8201a783          	lw	a5,-2016(gp) # 18278 <_impure_ptr>
    207c:	0087a783          	lw	a5,8(a5)
    2080:	00000693          	li	a3,0
    2084:	00200613          	li	a2,2
    2088:	00000593          	li	a1,0
    208c:	00078513          	mv	a0,a5
    2090:	479000ef          	jal	2d08 <setvbuf>
  }

  if ((FILE *)stderr->_bf._base == NULL)
    2094:	8201a783          	lw	a5,-2016(gp) # 18278 <_impure_ptr>
    2098:	00c7a783          	lw	a5,12(a5)
    209c:	0107a783          	lw	a5,16(a5)
    20a0:	02079063          	bnez	a5,20c0 <alt_io_redirect+0xe8>
  {
    setvbuf(stderr, NULL, _IONBF, 0);
    20a4:	8201a783          	lw	a5,-2016(gp) # 18278 <_impure_ptr>
    20a8:	00c7a783          	lw	a5,12(a5)
    20ac:	00000693          	li	a3,0
    20b0:	00200613          	li	a2,2
    20b4:	00000593          	li	a1,0
    20b8:	00078513          	mv	a0,a5
    20bc:	44d000ef          	jal	2d08 <setvbuf>
  }
#endif
}  
    20c0:	00000013          	nop
    20c4:	01c12083          	lw	ra,28(sp)
    20c8:	01812403          	lw	s0,24(sp)
    20cc:	02010113          	add	sp,sp,32
    20d0:	00008067          	ret

000020d4 <alt_release_fd>:
 * File descriptors correcponding to standard in, standard out and standard 
 * error cannont be released backed to the pool. They are always reserved.
 */

void alt_release_fd (int fd)
{
    20d4:	fe010113          	add	sp,sp,-32
    20d8:	00812e23          	sw	s0,28(sp)
    20dc:	02010413          	add	s0,sp,32
    20e0:	fea42623          	sw	a0,-20(s0)
  if (fd > 2)
    20e4:	fec42703          	lw	a4,-20(s0)
    20e8:	00200793          	li	a5,2
    20ec:	04e7d663          	bge	a5,a4,2138 <alt_release_fd+0x64>
  {
    alt_fd_list[fd].fd_flags = 0;
    20f0:	000187b7          	lui	a5,0x18
    20f4:	a3878693          	add	a3,a5,-1480 # 17a38 <alt_fd_list>
    20f8:	fec42703          	lw	a4,-20(s0)
    20fc:	00070793          	mv	a5,a4
    2100:	00179793          	sll	a5,a5,0x1
    2104:	00e787b3          	add	a5,a5,a4
    2108:	00279793          	sll	a5,a5,0x2
    210c:	00f687b3          	add	a5,a3,a5
    2110:	0007a423          	sw	zero,8(a5)
    alt_fd_list[fd].dev      = 0;
    2114:	000187b7          	lui	a5,0x18
    2118:	a3878693          	add	a3,a5,-1480 # 17a38 <alt_fd_list>
    211c:	fec42703          	lw	a4,-20(s0)
    2120:	00070793          	mv	a5,a4
    2124:	00179793          	sll	a5,a5,0x1
    2128:	00e787b3          	add	a5,a5,a4
    212c:	00279793          	sll	a5,a5,0x2
    2130:	00f687b3          	add	a5,a3,a5
    2134:	0007a023          	sw	zero,0(a5)
  }
}
    2138:	00000013          	nop
    213c:	01c12403          	lw	s0,28(sp)
    2140:	02010113          	add	sp,sp,32
    2144:	00008067          	ret

00002148 <alt_alarm_stop>:
 * alarms. Alternatively an alarm can unregister itself by returning zero when 
 * the alarm executes.
 */

void alt_alarm_stop (alt_alarm* alarm)
{
    2148:	fd010113          	add	sp,sp,-48
    214c:	02812623          	sw	s0,44(sp)
    2150:	03010413          	add	s0,sp,48
    2154:	fca42e23          	sw	a0,-36(s0)
    NIOSV_READ_AND_CLR_CSR(NIOSV_MSTATUS_CSR, context, NIOSV_MSTATUS_MIE_MASK);
    2158:	00800793          	li	a5,8
    215c:	3007b7f3          	csrrc	a5,mstatus,a5
    2160:	fef42623          	sw	a5,-20(s0)
    return context;
    2164:	fec42783          	lw	a5,-20(s0)
  alt_irq_context irq_context;

  irq_context = alt_irq_disable_all();
    2168:	fef42023          	sw	a5,-32(s0)
  alt_llist_remove (&alarm->llist);
    216c:	fdc42783          	lw	a5,-36(s0)
    2170:	fef42423          	sw	a5,-24(s0)
 * input argument is the element to remove.
 */
     
static ALT_INLINE void ALT_ALWAYS_INLINE alt_llist_remove(alt_llist* entry)
{
  entry->next->previous = entry->previous;
    2174:	fe842783          	lw	a5,-24(s0)
    2178:	0007a783          	lw	a5,0(a5)
    217c:	fe842703          	lw	a4,-24(s0)
    2180:	00472703          	lw	a4,4(a4)
    2184:	00e7a223          	sw	a4,4(a5)
  entry->previous->next = entry->next;
    2188:	fe842783          	lw	a5,-24(s0)
    218c:	0047a783          	lw	a5,4(a5)
    2190:	fe842703          	lw	a4,-24(s0)
    2194:	00072703          	lw	a4,0(a4)
    2198:	00e7a023          	sw	a4,0(a5)
  /* 
   * Set the entry to point to itself, so that any further calls to
   * alt_llist_remove() are harmless.
   */

  entry->previous = entry;
    219c:	fe842783          	lw	a5,-24(s0)
    21a0:	fe842703          	lw	a4,-24(s0)
    21a4:	00e7a223          	sw	a4,4(a5)
  entry->next     = entry;
    21a8:	fe842783          	lw	a5,-24(s0)
    21ac:	fe842703          	lw	a4,-24(s0)
    21b0:	00e7a023          	sw	a4,0(a5)
} 
    21b4:	00000013          	nop
    21b8:	fe042783          	lw	a5,-32(s0)
    21bc:	fef42223          	sw	a5,-28(s0)
    NIOSV_SET_CSR(NIOSV_MSTATUS_CSR, context & NIOSV_MSTATUS_MIE_MASK);
    21c0:	fe442783          	lw	a5,-28(s0)
    21c4:	0087f793          	and	a5,a5,8
    21c8:	3007a073          	csrs	mstatus,a5
}
    21cc:	00000013          	nop
  alt_irq_enable_all (irq_context);
}
    21d0:	00000013          	nop
    21d4:	02c12403          	lw	s0,44(sp)
    21d8:	03010113          	add	sp,sp,48
    21dc:	00008067          	ret

000021e0 <alt_tick>:
 * 
 * alt_tick() is expected to run at interrupt level.
 */

void alt_tick (void)
{
    21e0:	fe010113          	add	sp,sp,-32
    21e4:	00112e23          	sw	ra,28(sp)
    21e8:	00812c23          	sw	s0,24(sp)
    21ec:	01212a23          	sw	s2,20(sp)
    21f0:	01312823          	sw	s3,16(sp)
    21f4:	02010413          	add	s0,sp,32
  alt_alarm* next;
  alt_alarm* alarm = (alt_alarm*) alt_alarm_list.next;
    21f8:	81818793          	add	a5,gp,-2024 # 18270 <alt_alarm_list>
    21fc:	0007a783          	lw	a5,0(a5)
    2200:	fef42223          	sw	a5,-28(s0)

  alt_u32    next_callback;

  /* update the tick counter */

  _alt_nticks++;
    2204:	0001a7b7          	lui	a5,0x1a
    2208:	b887a703          	lw	a4,-1144(a5) # 19b88 <_alt_nticks>
    220c:	b8c7a783          	lw	a5,-1140(a5)
    2210:	00100513          	li	a0,1
    2214:	00000593          	li	a1,0
    2218:	00a70633          	add	a2,a4,a0
    221c:	00060813          	mv	a6,a2
    2220:	00e83833          	sltu	a6,a6,a4
    2224:	00b786b3          	add	a3,a5,a1
    2228:	00d807b3          	add	a5,a6,a3
    222c:	00078693          	mv	a3,a5
    2230:	00060713          	mv	a4,a2
    2234:	00068793          	mv	a5,a3
    2238:	0001a6b7          	lui	a3,0x1a
    223c:	b8e6a423          	sw	a4,-1144(a3) # 19b88 <_alt_nticks>
    2240:	b8f6a623          	sw	a5,-1140(a3)
 
  /* process the registered callbacks */

  while (alarm != (alt_alarm*) &alt_alarm_list)
    2244:	0c80006f          	j	230c <alt_tick+0x12c>
  {
    next = (alt_alarm*) alarm->llist.next;
    2248:	fe442783          	lw	a5,-28(s0)
    224c:	0007a783          	lw	a5,0(a5)
    2250:	fef42423          	sw	a5,-24(s0)
    
    /* if the alarm period has expired, make the callback */    
    if (alarm->time <= _alt_nticks)
    2254:	fe442783          	lw	a5,-28(s0)
    2258:	0087a603          	lw	a2,8(a5)
    225c:	00c7a683          	lw	a3,12(a5)
    2260:	0001a7b7          	lui	a5,0x1a
    2264:	b887a703          	lw	a4,-1144(a5) # 19b88 <_alt_nticks>
    2268:	b8c7a783          	lw	a5,-1140(a5)
    226c:	00068513          	mv	a0,a3
    2270:	00078593          	mv	a1,a5
    2274:	08a5e863          	bltu	a1,a0,2304 <alt_tick+0x124>
    2278:	00068513          	mv	a0,a3
    227c:	00078593          	mv	a1,a5
    2280:	00b51863          	bne	a0,a1,2290 <alt_tick+0xb0>
    2284:	00060693          	mv	a3,a2
    2288:	00070793          	mv	a5,a4
    228c:	06d7ec63          	bltu	a5,a3,2304 <alt_tick+0x124>
    {
      next_callback = alarm->callback (alarm->context);
    2290:	fe442783          	lw	a5,-28(s0)
    2294:	0107a783          	lw	a5,16(a5)
    2298:	fe442703          	lw	a4,-28(s0)
    229c:	01472703          	lw	a4,20(a4)
    22a0:	00070513          	mv	a0,a4
    22a4:	000780e7          	jalr	a5
    22a8:	fea42623          	sw	a0,-20(s0)

      /* deactivate the alarm if the return value is zero */

      if (next_callback == 0)
    22ac:	fec42783          	lw	a5,-20(s0)
    22b0:	00079863          	bnez	a5,22c0 <alt_tick+0xe0>
      {
        alt_alarm_stop (alarm);
    22b4:	fe442503          	lw	a0,-28(s0)
    22b8:	e91ff0ef          	jal	2148 <alt_alarm_stop>
    22bc:	0480006f          	j	2304 <alt_tick+0x124>
      }
      else
      {
        alarm->time += next_callback;
    22c0:	fe442783          	lw	a5,-28(s0)
    22c4:	0087a703          	lw	a4,8(a5)
    22c8:	00c7a783          	lw	a5,12(a5)
    22cc:	fec42683          	lw	a3,-20(s0)
    22d0:	00068913          	mv	s2,a3
    22d4:	00000993          	li	s3,0
    22d8:	01270633          	add	a2,a4,s2
    22dc:	00060593          	mv	a1,a2
    22e0:	00e5b5b3          	sltu	a1,a1,a4
    22e4:	013786b3          	add	a3,a5,s3
    22e8:	00d587b3          	add	a5,a1,a3
    22ec:	00078693          	mv	a3,a5
    22f0:	00060713          	mv	a4,a2
    22f4:	00068793          	mv	a5,a3
    22f8:	fe442683          	lw	a3,-28(s0)
    22fc:	00e6a423          	sw	a4,8(a3)
    2300:	00f6a623          	sw	a5,12(a3)
      }
    }
    alarm = next;
    2304:	fe842783          	lw	a5,-24(s0)
    2308:	fef42223          	sw	a5,-28(s0)
  while (alarm != (alt_alarm*) &alt_alarm_list)
    230c:	fe442703          	lw	a4,-28(s0)
    2310:	81818793          	add	a5,gp,-2024 # 18270 <alt_alarm_list>
    2314:	f2f71ae3          	bne	a4,a5,2248 <alt_tick+0x68>

  /* 
   * Update the operating system specific timer facilities.
   */

  ALT_OS_TIME_TICK();
    2318:	00000013          	nop
}
    231c:	00000013          	nop
    2320:	01c12083          	lw	ra,28(sp)
    2324:	01812403          	lw	s0,24(sp)
    2328:	01412903          	lw	s2,20(sp)
    232c:	01012983          	lw	s3,16(sp)
    2330:	02010113          	add	sp,sp,32
    2334:	00008067          	ret

00002338 <intel_niosv_irq_init>:
/*
 * To initialize the internal interrupt controller, just clear the mie
 * register so that all possible IRQs are disabled.
 */
void intel_niosv_irq_init(void) 
{
    2338:	ff010113          	add	sp,sp,-16
    233c:	00812623          	sw	s0,12(sp)
    2340:	01010413          	add	s0,sp,16
#if ALT_HAS_IRQ_SUPPORT
    NIOSV_CLR_CSR(NIOSV_MIE_CSR, NIOSV_MIE_MASK);
    2344:	fff00793          	li	a5,-1
    2348:	3047b073          	csrc	mie,a5
    NIOSV_WRITE_CSR(NIOSV_MTVEC_CSR, (alt_u32) &VIC_VECTOR_TABLE | ALT_CPU_INT_MODE_VIC);
#endif /* ALT_CPU_INT_MODE == ALT_CPU_INT_MODE_VIC */
#endif /* ALT_CPU_INT_MODE */

#endif
}
    234c:	00000013          	nop
    2350:	00c12403          	lw	s0,12(sp)
    2354:	01010113          	add	sp,sp,16
    2358:	00008067          	ret

0000235c <alt_timestamp_start>:
#define INTEL_NIOSV_TIMER_DEVICE_TYPE 2

#if (ALT_TIMESTAMP_CLK_TIMER_DEVICE_TYPE == INTEL_NIOSV_TIMER_DEVICE_TYPE)
alt_u64 alt_niosv_timestamp_offset = 0;

int alt_timestamp_start() {
    235c:	ff010113          	add	sp,sp,-16
    2360:	00112623          	sw	ra,12(sp)
    2364:	00812423          	sw	s0,8(sp)
    2368:	01010413          	add	s0,sp,16
void alt_niosv_timer_sc_isr(alt_u32 cause, alt_u32 epc, alt_u32 tval);

extern alt_u64 alt_niosv_timestamp_offset;

static ALT_INLINE int ALT_ALWAYS_INLINE alt_niosv_timer_timestamp_start() {
    alt_niosv_timestamp_offset = alt_niosv_mtime_get();
    236c:	0ac000ef          	jal	2418 <alt_niosv_mtime_get>
    2370:	00050713          	mv	a4,a0
    2374:	00058793          	mv	a5,a1
    2378:	0001a6b7          	lui	a3,0x1a
    237c:	b8e6a823          	sw	a4,-1136(a3) # 19b90 <alt_niosv_timestamp_offset>
    2380:	b8f6aa23          	sw	a5,-1132(a3)
    return 0;
    2384:	00000793          	li	a5,0
    return alt_niosv_timer_timestamp_start();
}
    2388:	00078513          	mv	a0,a5
    238c:	00c12083          	lw	ra,12(sp)
    2390:	00812403          	lw	s0,8(sp)
    2394:	01010113          	add	sp,sp,16
    2398:	00008067          	ret

0000239c <alt_timestamp>:

alt_timestamp_type alt_timestamp() {
    239c:	ff010113          	add	sp,sp,-16
    23a0:	00112623          	sw	ra,12(sp)
    23a4:	00812423          	sw	s0,8(sp)
    23a8:	01010413          	add	s0,sp,16
}

static ALT_INLINE alt_u64 ALT_ALWAYS_INLINE alt_niosv_timer_timestamp() {
    return alt_niosv_mtime_get() - alt_niosv_timestamp_offset;
    23ac:	06c000ef          	jal	2418 <alt_niosv_mtime_get>
    23b0:	00050613          	mv	a2,a0
    23b4:	00058693          	mv	a3,a1
    23b8:	0001a7b7          	lui	a5,0x1a
    23bc:	b907a503          	lw	a0,-1136(a5) # 19b90 <alt_niosv_timestamp_offset>
    23c0:	b947a583          	lw	a1,-1132(a5)
    23c4:	40a60733          	sub	a4,a2,a0
    23c8:	00070813          	mv	a6,a4
    23cc:	01063833          	sltu	a6,a2,a6
    23d0:	40b687b3          	sub	a5,a3,a1
    23d4:	410786b3          	sub	a3,a5,a6
    23d8:	00068793          	mv	a5,a3
    return alt_niosv_timer_timestamp();
}
    23dc:	00070513          	mv	a0,a4
    23e0:	00078593          	mv	a1,a5
    23e4:	00c12083          	lw	ra,12(sp)
    23e8:	00812403          	lw	s0,8(sp)
    23ec:	01010113          	add	sp,sp,16
    23f0:	00008067          	ret

000023f4 <alt_timestamp_freq>:

alt_u32 alt_timestamp_freq() {
    23f4:	ff010113          	add	sp,sp,-16
    23f8:	00812623          	sw	s0,12(sp)
    23fc:	01010413          	add	s0,sp,16
}

static ALT_INLINE alt_u32 ALT_ALWAYS_INLINE alt_niosv_timer_timestamp_freq() {
    return ALT_CPU_CPU_FREQ;
    2400:	02faf7b7          	lui	a5,0x2faf
    2404:	08078793          	add	a5,a5,128 # 2faf080 <__alt_data_end+0x2f7d080>
    return alt_niosv_timer_timestamp_freq();
}
    2408:	00078513          	mv	a0,a5
    240c:	00c12403          	lw	s0,12(sp)
    2410:	01010113          	add	sp,sp,16
    2414:	00008067          	ret

00002418 <alt_niosv_mtime_get>:
#endif

alt_u64 alt_niosv_mtime_get() {
    2418:	fe010113          	add	sp,sp,-32
    241c:	00812e23          	sw	s0,28(sp)
    2420:	02010413          	add	s0,sp,32
    alt_u32 lowbits;
    alt_u32 highbits;

    // Guard against rollover while acquiring each word
    do {
        highbits = ALT_VOLATILE_ACCESS((alt_u32 *)(NIOSV_MTIME_ADDR + 4));
    2424:	00050337          	lui	t1,0x50
    2428:	00430313          	add	t1,t1,4 # 50004 <__alt_data_end+0x1e004>
    242c:	00032303          	lw	t1,0(t1)
    2430:	fe642423          	sw	t1,-24(s0)
        lowbits = ALT_VOLATILE_ACCESS((alt_u32 *)NIOSV_MTIME_ADDR);
    2434:	00050337          	lui	t1,0x50
    2438:	00032303          	lw	t1,0(t1) # 50000 <__alt_data_end+0x1e000>
    243c:	fe642623          	sw	t1,-20(s0)
    } while (ALT_VOLATILE_ACCESS((alt_u32 *)(NIOSV_MTIME_ADDR + 4)) != highbits);
    2440:	00050337          	lui	t1,0x50
    2444:	00430313          	add	t1,t1,4 # 50004 <__alt_data_end+0x1e004>
    2448:	00032303          	lw	t1,0(t1)
    244c:	fe842e03          	lw	t3,-24(s0)
    2450:	fc6e1ae3          	bne	t3,t1,2424 <alt_niosv_mtime_get+0xc>

    return (((alt_u64)highbits) << 32) | lowbits;
    2454:	fe842303          	lw	t1,-24(s0)
    2458:	00030813          	mv	a6,t1
    245c:	00000893          	li	a7,0
    2460:	00081793          	sll	a5,a6,0x0
    2464:	00000713          	li	a4,0
    2468:	fec42803          	lw	a6,-20(s0)
    246c:	00080613          	mv	a2,a6
    2470:	00000693          	li	a3,0
    2474:	00c76533          	or	a0,a4,a2
    2478:	00d7e5b3          	or	a1,a5,a3
    247c:	00050713          	mv	a4,a0
    2480:	00058793          	mv	a5,a1
}
    2484:	00070513          	mv	a0,a4
    2488:	00078593          	mv	a1,a5
    248c:	01c12403          	lw	s0,28(sp)
    2490:	02010113          	add	sp,sp,32
    2494:	00008067          	ret

00002498 <alt_niosv_mtimecmp_set>:

void alt_niosv_mtimecmp_set(alt_u64 time) {
    2498:	fd010113          	add	sp,sp,-48
    249c:	02812623          	sw	s0,44(sp)
    24a0:	03010413          	add	s0,sp,48
    24a4:	fca42c23          	sw	a0,-40(s0)
    24a8:	fcb42e23          	sw	a1,-36(s0)
    NIOSV_READ_CSR(NIOSV_MHARTID_CSR, mhartid_val);
    24ac:	f14026f3          	csrr	a3,mhartid
    24b0:	fed42623          	sw	a3,-20(s0)
    return mhartid_val;
    24b4:	fec42603          	lw	a2,-20(s0)
    return (alt_u32 *)(NIOSV_MTIMECMP_ADDR + (8 * alt_niosv_read_mhartid()));
    24b8:	0000a6b7          	lui	a3,0xa
    24bc:	00168693          	add	a3,a3,1 # a001 <__gdtoa+0xa99>
    24c0:	00d606b3          	add	a3,a2,a3
    24c4:	00369693          	sll	a3,a3,0x3
    volatile alt_u32 *const mtimecmp_addr = alt_niosv_get_mtimecmp_addr();
    24c8:	fed42423          	sw	a3,-24(s0)

    // Make sure to set the high word to a max value first to prevent triggering inadvertently
    ALT_VOLATILE_ACCESS((alt_u32 *)(mtimecmp_addr + 1)) = 0xFFFFFFFF;
    24cc:	fe842683          	lw	a3,-24(s0)
    24d0:	00468693          	add	a3,a3,4
    24d4:	fff00613          	li	a2,-1
    24d8:	00c6a023          	sw	a2,0(a3)
    ALT_VOLATILE_ACCESS(mtimecmp_addr) = (alt_u32)time;
    24dc:	fd842603          	lw	a2,-40(s0)
    24e0:	fe842683          	lw	a3,-24(s0)
    24e4:	00c6a023          	sw	a2,0(a3)
    ALT_VOLATILE_ACCESS((alt_u32 *)(mtimecmp_addr + 1)) = (alt_u32)(time >> 32);
    24e8:	fdc42683          	lw	a3,-36(s0)
    24ec:	0006d713          	srl	a4,a3,0x0
    24f0:	00000793          	li	a5,0
    24f4:	fe842683          	lw	a3,-24(s0)
    24f8:	00468693          	add	a3,a3,4
    24fc:	00070793          	mv	a5,a4
    2500:	00f6a023          	sw	a5,0(a3)
}
    2504:	00000013          	nop
    2508:	02c12403          	lw	s0,44(sp)
    250c:	03010113          	add	sp,sp,48
    2510:	00008067          	ret

00002514 <alt_niosv_mtimecmp_get>:

alt_u64 alt_niosv_mtimecmp_get() {
    2514:	fe010113          	add	sp,sp,-32
    2518:	00812e23          	sw	s0,28(sp)
    251c:	02010413          	add	s0,sp,32
    NIOSV_READ_CSR(NIOSV_MHARTID_CSR, mhartid_val);
    2520:	f1402373          	csrr	t1,mhartid
    2524:	fe642623          	sw	t1,-20(s0)
    return mhartid_val;
    2528:	fec42e03          	lw	t3,-20(s0)
    return (alt_u32 *)(NIOSV_MTIMECMP_ADDR + (8 * alt_niosv_read_mhartid()));
    252c:	0000a337          	lui	t1,0xa
    2530:	00130313          	add	t1,t1,1 # a001 <__gdtoa+0xa99>
    2534:	006e0333          	add	t1,t3,t1
    2538:	00331313          	sll	t1,t1,0x3
    volatile alt_u32 *const mtimecmp_addr = alt_niosv_get_mtimecmp_addr();
    253c:	fe642023          	sw	t1,-32(s0)

    alt_u32 lowbits = ALT_VOLATILE_ACCESS(mtimecmp_addr);
    2540:	fe042303          	lw	t1,-32(s0)
    2544:	00032303          	lw	t1,0(t1)
    2548:	fe642223          	sw	t1,-28(s0)
    alt_u32 highbits = ALT_VOLATILE_ACCESS((alt_u32 *)(mtimecmp_addr + 1));
    254c:	fe042303          	lw	t1,-32(s0)
    2550:	00430313          	add	t1,t1,4
    2554:	00032303          	lw	t1,0(t1)
    2558:	fe642423          	sw	t1,-24(s0)
    return (((alt_u64)highbits) << 32) | lowbits;
    255c:	fe842303          	lw	t1,-24(s0)
    2560:	00030813          	mv	a6,t1
    2564:	00000893          	li	a7,0
    2568:	00081793          	sll	a5,a6,0x0
    256c:	00000713          	li	a4,0
    2570:	fe442803          	lw	a6,-28(s0)
    2574:	00080613          	mv	a2,a6
    2578:	00000693          	li	a3,0
    257c:	00c76533          	or	a0,a4,a2
    2580:	00d7e5b3          	or	a1,a5,a3
    2584:	00050713          	mv	a4,a0
    2588:	00058793          	mv	a5,a1
}
    258c:	00070513          	mv	a0,a4
    2590:	00078593          	mv	a1,a5
    2594:	01c12403          	lw	s0,28(sp)
    2598:	02010113          	add	sp,sp,32
    259c:	00008067          	ret

000025a0 <alt_niosv_timer_sc_isr>:
// Let's the OS port handles the machine timer configuration and interrupt if
// the OS port has it (ex: FreeRTOS).
void alt_niosv_timer_sc_isr(alt_u32 cause, alt_u32 epc, alt_u32 tval) {}
void alt_niosv_mtimecmp_interrupt_init() {}
#else
void alt_niosv_timer_sc_isr(alt_u32 cause, alt_u32 epc, alt_u32 tval) {
    25a0:	fc010113          	add	sp,sp,-64
    25a4:	02112e23          	sw	ra,60(sp)
    25a8:	02812c23          	sw	s0,56(sp)
    25ac:	04010413          	add	s0,sp,64
    25b0:	fca42623          	sw	a0,-52(s0)
    25b4:	fcb42423          	sw	a1,-56(s0)
    25b8:	fcc42223          	sw	a2,-60(s0)
    // Schedule the next interrupt.  This is done first since who knows how long
    // the following code takes, and the contract is ticks per second, irrespective
    // of how long a given clock tick may take.

    alt_u64 curr_time = alt_niosv_mtime_get();
    25bc:	e5dff0ef          	jal	2418 <alt_niosv_mtime_get>
    25c0:	fea42423          	sw	a0,-24(s0)
    25c4:	feb42623          	sw	a1,-20(s0)
    alt_niosv_mtimecmp_set(curr_time + MTIMECMP_DELTA_AMT);
    25c8:	fe842703          	lw	a4,-24(s0)
    25cc:	fec42783          	lw	a5,-20(s0)
    25d0:	0000c537          	lui	a0,0xc
    25d4:	35050513          	add	a0,a0,848 # c350 <__lshift+0x188>
    25d8:	00000593          	li	a1,0
    25dc:	00a70633          	add	a2,a4,a0
    25e0:	00060813          	mv	a6,a2
    25e4:	00e83833          	sltu	a6,a6,a4
    25e8:	00b786b3          	add	a3,a5,a1
    25ec:	00d807b3          	add	a5,a6,a3
    25f0:	00078693          	mv	a3,a5
    25f4:	00060713          	mv	a4,a2
    25f8:	00068793          	mv	a5,a3
    25fc:	00070513          	mv	a0,a4
    2600:	00078593          	mv	a1,a5
    2604:	e95ff0ef          	jal	2498 <alt_niosv_mtimecmp_set>
    NIOSV_READ_AND_CLR_CSR(NIOSV_MSTATUS_CSR, context, NIOSV_MSTATUS_MIE_MASK);
    2608:	00800793          	li	a5,8
    260c:	3007b7f3          	csrrc	a5,mstatus,a5
    2610:	fef42223          	sw	a5,-28(s0)
    return context;
    2614:	fe442783          	lw	a5,-28(s0)

    /* 
    * Notify the system of a clock tick. disable interrupts 
    * during this time to safely support ISR preemption
    */
    alt_irq_context cpu_sr = alt_irq_disable_all();
    2618:	fcf42e23          	sw	a5,-36(s0)
    alt_tick();
    261c:	bc5ff0ef          	jal	21e0 <alt_tick>
    2620:	fdc42783          	lw	a5,-36(s0)
    2624:	fef42023          	sw	a5,-32(s0)
    NIOSV_SET_CSR(NIOSV_MSTATUS_CSR, context & NIOSV_MSTATUS_MIE_MASK);
    2628:	fe042783          	lw	a5,-32(s0)
    262c:	0087f793          	and	a5,a5,8
    2630:	3007a073          	csrs	mstatus,a5
}
    2634:	00000013          	nop
    alt_irq_enable_all(cpu_sr);
}
    2638:	00000013          	nop
    263c:	03c12083          	lw	ra,60(sp)
    2640:	03812403          	lw	s0,56(sp)
    2644:	04010113          	add	sp,sp,64
    2648:	00008067          	ret

0000264c <alt_niosv_mtimecmp_interrupt_init>:

void alt_niosv_mtimecmp_interrupt_init() {
    264c:	fe010113          	add	sp,sp,-32
    2650:	00112e23          	sw	ra,28(sp)
    2654:	00812c23          	sw	s0,24(sp)
    2658:	02010413          	add	s0,sp,32
    alt_u64 curr_time = alt_niosv_mtime_get();
    265c:	dbdff0ef          	jal	2418 <alt_niosv_mtime_get>
    2660:	fea42423          	sw	a0,-24(s0)
    2664:	feb42623          	sw	a1,-20(s0)
    alt_niosv_mtimecmp_set(curr_time + MTIMECMP_DELTA_AMT);
    2668:	fe842703          	lw	a4,-24(s0)
    266c:	fec42783          	lw	a5,-20(s0)
    2670:	0000c537          	lui	a0,0xc
    2674:	35050513          	add	a0,a0,848 # c350 <__lshift+0x188>
    2678:	00000593          	li	a1,0
    267c:	00a70633          	add	a2,a4,a0
    2680:	00060813          	mv	a6,a2
    2684:	00e83833          	sltu	a6,a6,a4
    2688:	00b786b3          	add	a3,a5,a1
    268c:	00d807b3          	add	a5,a6,a3
    2690:	00078693          	mv	a3,a5
    2694:	00060713          	mv	a4,a2
    2698:	00068793          	mv	a5,a3
    269c:	00070513          	mv	a0,a4
    26a0:	00078593          	mv	a1,a5
    26a4:	df5ff0ef          	jal	2498 <alt_niosv_mtimecmp_set>
    NIOSV_SET_CSR(NIOSV_MIE_CSR, (0x1 << NIOSV_TIMER_IRQ));
    26a8:	08000793          	li	a5,128
    26ac:	3047a073          	csrs	mie,a5
}
    26b0:	00000013          	nop
    alt_niosv_enable_timer_interrupt();
}
    26b4:	00000013          	nop
    26b8:	01c12083          	lw	ra,28(sp)
    26bc:	01812403          	lw	s0,24(sp)
    26c0:	02010113          	add	sp,sp,32
    26c4:	00008067          	ret

000026c8 <exit>:
    26c8:	ff010113          	add	sp,sp,-16
    26cc:	00000593          	li	a1,0
    26d0:	00812423          	sw	s0,8(sp)
    26d4:	00112623          	sw	ra,12(sp)
    26d8:	00050413          	mv	s0,a0
    26dc:	3fc010ef          	jal	3ad8 <__call_exitprocs>
    26e0:	00017797          	auipc	a5,0x17
    26e4:	4bc7a783          	lw	a5,1212(a5) # 19b9c <__stdio_exit_handler>
    26e8:	00078463          	beqz	a5,26f0 <exit+0x28>
    26ec:	000780e7          	jalr	a5
    26f0:	00040513          	mv	a0,s0
    26f4:	7b0120ef          	jal	14ea4 <_exit>

000026f8 <open>:
    26f8:	fc010113          	add	sp,sp,-64
    26fc:	02c12423          	sw	a2,40(sp)
    2700:	02d12623          	sw	a3,44(sp)
    2704:	02f12a23          	sw	a5,52(sp)
    2708:	00060693          	mv	a3,a2
    270c:	02810793          	add	a5,sp,40
    2710:	00058613          	mv	a2,a1
    2714:	00050593          	mv	a1,a0
    2718:	8201a503          	lw	a0,-2016(gp) # 18278 <_impure_ptr>
    271c:	00112e23          	sw	ra,28(sp)
    2720:	02e12823          	sw	a4,48(sp)
    2724:	03012c23          	sw	a6,56(sp)
    2728:	03112e23          	sw	a7,60(sp)
    272c:	00f12623          	sw	a5,12(sp)
    2730:	071000ef          	jal	2fa0 <_open_r>
    2734:	01c12083          	lw	ra,28(sp)
    2738:	04010113          	add	sp,sp,64
    273c:	00008067          	ret

00002740 <_reclaim_reent>:
    2740:	8201a783          	lw	a5,-2016(gp) # 18278 <_impure_ptr>
    2744:	0ca78e63          	beq	a5,a0,2820 <_reclaim_reent+0xe0>
    2748:	04452583          	lw	a1,68(a0)
    274c:	fe010113          	add	sp,sp,-32
    2750:	00912a23          	sw	s1,20(sp)
    2754:	00112e23          	sw	ra,28(sp)
    2758:	00812c23          	sw	s0,24(sp)
    275c:	00050493          	mv	s1,a0
    2760:	04058863          	beqz	a1,27b0 <_reclaim_reent+0x70>
    2764:	01212823          	sw	s2,16(sp)
    2768:	01312623          	sw	s3,12(sp)
    276c:	00000913          	li	s2,0
    2770:	08000993          	li	s3,128
    2774:	012587b3          	add	a5,a1,s2
    2778:	0007a403          	lw	s0,0(a5)
    277c:	00040e63          	beqz	s0,2798 <_reclaim_reent+0x58>
    2780:	00040593          	mv	a1,s0
    2784:	00042403          	lw	s0,0(s0)
    2788:	00048513          	mv	a0,s1
    278c:	03c020ef          	jal	47c8 <_free_r>
    2790:	fe0418e3          	bnez	s0,2780 <_reclaim_reent+0x40>
    2794:	0444a583          	lw	a1,68(s1)
    2798:	00490913          	add	s2,s2,4
    279c:	fd391ce3          	bne	s2,s3,2774 <_reclaim_reent+0x34>
    27a0:	00048513          	mv	a0,s1
    27a4:	024020ef          	jal	47c8 <_free_r>
    27a8:	01012903          	lw	s2,16(sp)
    27ac:	00c12983          	lw	s3,12(sp)
    27b0:	0384a583          	lw	a1,56(s1)
    27b4:	00058663          	beqz	a1,27c0 <_reclaim_reent+0x80>
    27b8:	00048513          	mv	a0,s1
    27bc:	00c020ef          	jal	47c8 <_free_r>
    27c0:	0404a403          	lw	s0,64(s1)
    27c4:	00040c63          	beqz	s0,27dc <_reclaim_reent+0x9c>
    27c8:	00040593          	mv	a1,s0
    27cc:	00042403          	lw	s0,0(s0)
    27d0:	00048513          	mv	a0,s1
    27d4:	7f5010ef          	jal	47c8 <_free_r>
    27d8:	fe0418e3          	bnez	s0,27c8 <_reclaim_reent+0x88>
    27dc:	04c4a583          	lw	a1,76(s1)
    27e0:	00058663          	beqz	a1,27ec <_reclaim_reent+0xac>
    27e4:	00048513          	mv	a0,s1
    27e8:	7e1010ef          	jal	47c8 <_free_r>
    27ec:	0344a783          	lw	a5,52(s1)
    27f0:	00078e63          	beqz	a5,280c <_reclaim_reent+0xcc>
    27f4:	01812403          	lw	s0,24(sp)
    27f8:	01c12083          	lw	ra,28(sp)
    27fc:	00048513          	mv	a0,s1
    2800:	01412483          	lw	s1,20(sp)
    2804:	02010113          	add	sp,sp,32
    2808:	00078067          	jr	a5
    280c:	01c12083          	lw	ra,28(sp)
    2810:	01812403          	lw	s0,24(sp)
    2814:	01412483          	lw	s1,20(sp)
    2818:	02010113          	add	sp,sp,32
    281c:	00008067          	ret
    2820:	00008067          	ret

00002824 <stdio_exit_handler>:
    2824:	00015617          	auipc	a2,0x15
    2828:	4b460613          	add	a2,a2,1204 # 17cd8 <__sglue>
    282c:	00002597          	auipc	a1,0x2
    2830:	80858593          	add	a1,a1,-2040 # 4034 <_fclose_r>
    2834:	00015517          	auipc	a0,0x15
    2838:	38450513          	add	a0,a0,900 # 17bb8 <_impure_data>
    283c:	7c80006f          	j	3004 <_fwalk_sglue>

00002840 <cleanup_stdio>:
    2840:	00452583          	lw	a1,4(a0)
    2844:	ff010113          	add	sp,sp,-16
    2848:	00812423          	sw	s0,8(sp)
    284c:	00112623          	sw	ra,12(sp)
    2850:	00017797          	auipc	a5,0x17
    2854:	40878793          	add	a5,a5,1032 # 19c58 <__sf>
    2858:	00050413          	mv	s0,a0
    285c:	00f58463          	beq	a1,a5,2864 <cleanup_stdio+0x24>
    2860:	7d4010ef          	jal	4034 <_fclose_r>
    2864:	00842583          	lw	a1,8(s0)
    2868:	00017797          	auipc	a5,0x17
    286c:	45878793          	add	a5,a5,1112 # 19cc0 <__sf+0x68>
    2870:	00f58663          	beq	a1,a5,287c <cleanup_stdio+0x3c>
    2874:	00040513          	mv	a0,s0
    2878:	7bc010ef          	jal	4034 <_fclose_r>
    287c:	00c42583          	lw	a1,12(s0)
    2880:	00017797          	auipc	a5,0x17
    2884:	4a878793          	add	a5,a5,1192 # 19d28 <__sf+0xd0>
    2888:	00f58c63          	beq	a1,a5,28a0 <cleanup_stdio+0x60>
    288c:	00040513          	mv	a0,s0
    2890:	00812403          	lw	s0,8(sp)
    2894:	00c12083          	lw	ra,12(sp)
    2898:	01010113          	add	sp,sp,16
    289c:	7980106f          	j	4034 <_fclose_r>
    28a0:	00c12083          	lw	ra,12(sp)
    28a4:	00812403          	lw	s0,8(sp)
    28a8:	01010113          	add	sp,sp,16
    28ac:	00008067          	ret

000028b0 <__fp_lock>:
    28b0:	0645a783          	lw	a5,100(a1)
    28b4:	0017f793          	and	a5,a5,1
    28b8:	00079863          	bnez	a5,28c8 <__fp_lock+0x18>
    28bc:	00c5d783          	lhu	a5,12(a1)
    28c0:	2007f793          	and	a5,a5,512
    28c4:	00078663          	beqz	a5,28d0 <__fp_lock+0x20>
    28c8:	00000513          	li	a0,0
    28cc:	00008067          	ret
    28d0:	0585a503          	lw	a0,88(a1)
    28d4:	ff010113          	add	sp,sp,-16
    28d8:	00112623          	sw	ra,12(sp)
    28dc:	730010ef          	jal	400c <__retarget_lock_acquire_recursive>
    28e0:	00c12083          	lw	ra,12(sp)
    28e4:	00000513          	li	a0,0
    28e8:	01010113          	add	sp,sp,16
    28ec:	00008067          	ret

000028f0 <__fp_unlock>:
    28f0:	0645a783          	lw	a5,100(a1)
    28f4:	0017f793          	and	a5,a5,1
    28f8:	00079863          	bnez	a5,2908 <__fp_unlock+0x18>
    28fc:	00c5d783          	lhu	a5,12(a1)
    2900:	2007f793          	and	a5,a5,512
    2904:	00078663          	beqz	a5,2910 <__fp_unlock+0x20>
    2908:	00000513          	li	a0,0
    290c:	00008067          	ret
    2910:	0585a503          	lw	a0,88(a1)
    2914:	ff010113          	add	sp,sp,-16
    2918:	00112623          	sw	ra,12(sp)
    291c:	708010ef          	jal	4024 <__retarget_lock_release_recursive>
    2920:	00c12083          	lw	ra,12(sp)
    2924:	00000513          	li	a0,0
    2928:	01010113          	add	sp,sp,16
    292c:	00008067          	ret

00002930 <global_stdio_init.part.0>:
    2930:	fe010113          	add	sp,sp,-32
    2934:	00000797          	auipc	a5,0x0
    2938:	ef078793          	add	a5,a5,-272 # 2824 <stdio_exit_handler>
    293c:	00112e23          	sw	ra,28(sp)
    2940:	00812c23          	sw	s0,24(sp)
    2944:	00912a23          	sw	s1,20(sp)
    2948:	00017417          	auipc	s0,0x17
    294c:	31040413          	add	s0,s0,784 # 19c58 <__sf>
    2950:	01212823          	sw	s2,16(sp)
    2954:	01312623          	sw	s3,12(sp)
    2958:	01412423          	sw	s4,8(sp)
    295c:	00800613          	li	a2,8
    2960:	00000593          	li	a1,0
    2964:	00017717          	auipc	a4,0x17
    2968:	22f72c23          	sw	a5,568(a4) # 19b9c <__stdio_exit_handler>
    296c:	00017517          	auipc	a0,0x17
    2970:	34850513          	add	a0,a0,840 # 19cb4 <__sf+0x5c>
    2974:	00400793          	li	a5,4
    2978:	00f42623          	sw	a5,12(s0)
    297c:	00042023          	sw	zero,0(s0)
    2980:	00042223          	sw	zero,4(s0)
    2984:	00042423          	sw	zero,8(s0)
    2988:	06042223          	sw	zero,100(s0)
    298c:	00042823          	sw	zero,16(s0)
    2990:	00042a23          	sw	zero,20(s0)
    2994:	00042c23          	sw	zero,24(s0)
    2998:	019010ef          	jal	41b0 <memset>
    299c:	00000a17          	auipc	s4,0x0
    29a0:	71ca0a13          	add	s4,s4,1820 # 30b8 <__sread>
    29a4:	00000997          	auipc	s3,0x0
    29a8:	77898993          	add	s3,s3,1912 # 311c <__swrite>
    29ac:	00000917          	auipc	s2,0x0
    29b0:	7f890913          	add	s2,s2,2040 # 31a4 <__sseek>
    29b4:	00001497          	auipc	s1,0x1
    29b8:	86848493          	add	s1,s1,-1944 # 321c <__sclose>
    29bc:	00017517          	auipc	a0,0x17
    29c0:	2f450513          	add	a0,a0,756 # 19cb0 <__sf+0x58>
    29c4:	03442023          	sw	s4,32(s0)
    29c8:	03342223          	sw	s3,36(s0)
    29cc:	03242423          	sw	s2,40(s0)
    29d0:	02942623          	sw	s1,44(s0)
    29d4:	00842e23          	sw	s0,28(s0)
    29d8:	624010ef          	jal	3ffc <__retarget_lock_init_recursive>
    29dc:	000107b7          	lui	a5,0x10
    29e0:	00878793          	add	a5,a5,8 # 10008 <__divdf3+0x6bc>
    29e4:	00800613          	li	a2,8
    29e8:	00000593          	li	a1,0
    29ec:	00017517          	auipc	a0,0x17
    29f0:	33050513          	add	a0,a0,816 # 19d1c <__sf+0xc4>
    29f4:	06f42a23          	sw	a5,116(s0)
    29f8:	06042423          	sw	zero,104(s0)
    29fc:	06042623          	sw	zero,108(s0)
    2a00:	06042823          	sw	zero,112(s0)
    2a04:	0c042623          	sw	zero,204(s0)
    2a08:	06042c23          	sw	zero,120(s0)
    2a0c:	06042e23          	sw	zero,124(s0)
    2a10:	08042023          	sw	zero,128(s0)
    2a14:	79c010ef          	jal	41b0 <memset>
    2a18:	00017797          	auipc	a5,0x17
    2a1c:	2a878793          	add	a5,a5,680 # 19cc0 <__sf+0x68>
    2a20:	00017517          	auipc	a0,0x17
    2a24:	2f850513          	add	a0,a0,760 # 19d18 <__sf+0xc0>
    2a28:	08f42223          	sw	a5,132(s0)
    2a2c:	09442423          	sw	s4,136(s0)
    2a30:	09342623          	sw	s3,140(s0)
    2a34:	09242823          	sw	s2,144(s0)
    2a38:	08942a23          	sw	s1,148(s0)
    2a3c:	5c0010ef          	jal	3ffc <__retarget_lock_init_recursive>
    2a40:	000207b7          	lui	a5,0x20
    2a44:	01278793          	add	a5,a5,18 # 20012 <__alt_heap_start+0x60ca>
    2a48:	00800613          	li	a2,8
    2a4c:	00000593          	li	a1,0
    2a50:	00017517          	auipc	a0,0x17
    2a54:	33450513          	add	a0,a0,820 # 19d84 <__sf+0x12c>
    2a58:	0cf42e23          	sw	a5,220(s0)
    2a5c:	0c042823          	sw	zero,208(s0)
    2a60:	0c042a23          	sw	zero,212(s0)
    2a64:	0c042c23          	sw	zero,216(s0)
    2a68:	12042a23          	sw	zero,308(s0)
    2a6c:	0e042023          	sw	zero,224(s0)
    2a70:	0e042223          	sw	zero,228(s0)
    2a74:	0e042423          	sw	zero,232(s0)
    2a78:	738010ef          	jal	41b0 <memset>
    2a7c:	00017797          	auipc	a5,0x17
    2a80:	2ac78793          	add	a5,a5,684 # 19d28 <__sf+0xd0>
    2a84:	0f442823          	sw	s4,240(s0)
    2a88:	0f342a23          	sw	s3,244(s0)
    2a8c:	0f242c23          	sw	s2,248(s0)
    2a90:	0e942e23          	sw	s1,252(s0)
    2a94:	0ef42623          	sw	a5,236(s0)
    2a98:	01812403          	lw	s0,24(sp)
    2a9c:	01c12083          	lw	ra,28(sp)
    2aa0:	01412483          	lw	s1,20(sp)
    2aa4:	01012903          	lw	s2,16(sp)
    2aa8:	00c12983          	lw	s3,12(sp)
    2aac:	00812a03          	lw	s4,8(sp)
    2ab0:	00017517          	auipc	a0,0x17
    2ab4:	2d050513          	add	a0,a0,720 # 19d80 <__sf+0x128>
    2ab8:	02010113          	add	sp,sp,32
    2abc:	5400106f          	j	3ffc <__retarget_lock_init_recursive>

00002ac0 <__sfp>:
    2ac0:	fe010113          	add	sp,sp,-32
    2ac4:	01312623          	sw	s3,12(sp)
    2ac8:	00050993          	mv	s3,a0
    2acc:	00017517          	auipc	a0,0x17
    2ad0:	10450513          	add	a0,a0,260 # 19bd0 <__lock___sfp_recursive_mutex>
    2ad4:	00112e23          	sw	ra,28(sp)
    2ad8:	00812c23          	sw	s0,24(sp)
    2adc:	00912a23          	sw	s1,20(sp)
    2ae0:	01212823          	sw	s2,16(sp)
    2ae4:	528010ef          	jal	400c <__retarget_lock_acquire_recursive>
    2ae8:	00017797          	auipc	a5,0x17
    2aec:	0b47a783          	lw	a5,180(a5) # 19b9c <__stdio_exit_handler>
    2af0:	10078263          	beqz	a5,2bf4 <__sfp+0x134>
    2af4:	00015917          	auipc	s2,0x15
    2af8:	1e490913          	add	s2,s2,484 # 17cd8 <__sglue>
    2afc:	fff00493          	li	s1,-1
    2b00:	00492783          	lw	a5,4(s2)
    2b04:	00892403          	lw	s0,8(s2)
    2b08:	fff78793          	add	a5,a5,-1
    2b0c:	0007d863          	bgez	a5,2b1c <__sfp+0x5c>
    2b10:	0940006f          	j	2ba4 <__sfp+0xe4>
    2b14:	06840413          	add	s0,s0,104
    2b18:	08978663          	beq	a5,s1,2ba4 <__sfp+0xe4>
    2b1c:	00c41703          	lh	a4,12(s0)
    2b20:	fff78793          	add	a5,a5,-1
    2b24:	fe0718e3          	bnez	a4,2b14 <__sfp+0x54>
    2b28:	ffff07b7          	lui	a5,0xffff0
    2b2c:	00178793          	add	a5,a5,1 # ffff0001 <__alt_data_end+0xfffbe001>
    2b30:	00f42623          	sw	a5,12(s0)
    2b34:	05840513          	add	a0,s0,88
    2b38:	06042223          	sw	zero,100(s0)
    2b3c:	4c0010ef          	jal	3ffc <__retarget_lock_init_recursive>
    2b40:	00017517          	auipc	a0,0x17
    2b44:	09050513          	add	a0,a0,144 # 19bd0 <__lock___sfp_recursive_mutex>
    2b48:	4dc010ef          	jal	4024 <__retarget_lock_release_recursive>
    2b4c:	00800613          	li	a2,8
    2b50:	00042023          	sw	zero,0(s0)
    2b54:	00042423          	sw	zero,8(s0)
    2b58:	00042223          	sw	zero,4(s0)
    2b5c:	00042823          	sw	zero,16(s0)
    2b60:	00042a23          	sw	zero,20(s0)
    2b64:	00042c23          	sw	zero,24(s0)
    2b68:	00000593          	li	a1,0
    2b6c:	05c40513          	add	a0,s0,92
    2b70:	640010ef          	jal	41b0 <memset>
    2b74:	02042823          	sw	zero,48(s0)
    2b78:	02042a23          	sw	zero,52(s0)
    2b7c:	04042223          	sw	zero,68(s0)
    2b80:	04042423          	sw	zero,72(s0)
    2b84:	01c12083          	lw	ra,28(sp)
    2b88:	00040513          	mv	a0,s0
    2b8c:	01812403          	lw	s0,24(sp)
    2b90:	01412483          	lw	s1,20(sp)
    2b94:	01012903          	lw	s2,16(sp)
    2b98:	00c12983          	lw	s3,12(sp)
    2b9c:	02010113          	add	sp,sp,32
    2ba0:	00008067          	ret
    2ba4:	00092403          	lw	s0,0(s2)
    2ba8:	00040663          	beqz	s0,2bb4 <__sfp+0xf4>
    2bac:	00040913          	mv	s2,s0
    2bb0:	f51ff06f          	j	2b00 <__sfp+0x40>
    2bb4:	1ac00593          	li	a1,428
    2bb8:	00098513          	mv	a0,s3
    2bbc:	740000ef          	jal	32fc <_malloc_r>
    2bc0:	00050413          	mv	s0,a0
    2bc4:	02050c63          	beqz	a0,2bfc <__sfp+0x13c>
    2bc8:	00c50513          	add	a0,a0,12
    2bcc:	00400793          	li	a5,4
    2bd0:	00042023          	sw	zero,0(s0)
    2bd4:	00f42223          	sw	a5,4(s0)
    2bd8:	00a42423          	sw	a0,8(s0)
    2bdc:	1a000613          	li	a2,416
    2be0:	00000593          	li	a1,0
    2be4:	5cc010ef          	jal	41b0 <memset>
    2be8:	00892023          	sw	s0,0(s2)
    2bec:	00040913          	mv	s2,s0
    2bf0:	f11ff06f          	j	2b00 <__sfp+0x40>
    2bf4:	d3dff0ef          	jal	2930 <global_stdio_init.part.0>
    2bf8:	efdff06f          	j	2af4 <__sfp+0x34>
    2bfc:	00092023          	sw	zero,0(s2)
    2c00:	00017517          	auipc	a0,0x17
    2c04:	fd050513          	add	a0,a0,-48 # 19bd0 <__lock___sfp_recursive_mutex>
    2c08:	41c010ef          	jal	4024 <__retarget_lock_release_recursive>
    2c0c:	00c00793          	li	a5,12
    2c10:	00f9a023          	sw	a5,0(s3)
    2c14:	f71ff06f          	j	2b84 <__sfp+0xc4>

00002c18 <__sinit>:
    2c18:	ff010113          	add	sp,sp,-16
    2c1c:	00812423          	sw	s0,8(sp)
    2c20:	00050413          	mv	s0,a0
    2c24:	00017517          	auipc	a0,0x17
    2c28:	fac50513          	add	a0,a0,-84 # 19bd0 <__lock___sfp_recursive_mutex>
    2c2c:	00112623          	sw	ra,12(sp)
    2c30:	3dc010ef          	jal	400c <__retarget_lock_acquire_recursive>
    2c34:	03442783          	lw	a5,52(s0)
    2c38:	00079e63          	bnez	a5,2c54 <__sinit+0x3c>
    2c3c:	00000797          	auipc	a5,0x0
    2c40:	c0478793          	add	a5,a5,-1020 # 2840 <cleanup_stdio>
    2c44:	02f42a23          	sw	a5,52(s0)
    2c48:	00017797          	auipc	a5,0x17
    2c4c:	f547a783          	lw	a5,-172(a5) # 19b9c <__stdio_exit_handler>
    2c50:	00078e63          	beqz	a5,2c6c <__sinit+0x54>
    2c54:	00812403          	lw	s0,8(sp)
    2c58:	00c12083          	lw	ra,12(sp)
    2c5c:	00017517          	auipc	a0,0x17
    2c60:	f7450513          	add	a0,a0,-140 # 19bd0 <__lock___sfp_recursive_mutex>
    2c64:	01010113          	add	sp,sp,16
    2c68:	3bc0106f          	j	4024 <__retarget_lock_release_recursive>
    2c6c:	cc5ff0ef          	jal	2930 <global_stdio_init.part.0>
    2c70:	00812403          	lw	s0,8(sp)
    2c74:	00c12083          	lw	ra,12(sp)
    2c78:	00017517          	auipc	a0,0x17
    2c7c:	f5850513          	add	a0,a0,-168 # 19bd0 <__lock___sfp_recursive_mutex>
    2c80:	01010113          	add	sp,sp,16
    2c84:	3a00106f          	j	4024 <__retarget_lock_release_recursive>

00002c88 <__sfp_lock_acquire>:
    2c88:	00017517          	auipc	a0,0x17
    2c8c:	f4850513          	add	a0,a0,-184 # 19bd0 <__lock___sfp_recursive_mutex>
    2c90:	37c0106f          	j	400c <__retarget_lock_acquire_recursive>

00002c94 <__sfp_lock_release>:
    2c94:	00017517          	auipc	a0,0x17
    2c98:	f3c50513          	add	a0,a0,-196 # 19bd0 <__lock___sfp_recursive_mutex>
    2c9c:	3880106f          	j	4024 <__retarget_lock_release_recursive>

00002ca0 <__fp_lock_all>:
    2ca0:	ff010113          	add	sp,sp,-16
    2ca4:	00017517          	auipc	a0,0x17
    2ca8:	f2c50513          	add	a0,a0,-212 # 19bd0 <__lock___sfp_recursive_mutex>
    2cac:	00112623          	sw	ra,12(sp)
    2cb0:	35c010ef          	jal	400c <__retarget_lock_acquire_recursive>
    2cb4:	00c12083          	lw	ra,12(sp)
    2cb8:	00015617          	auipc	a2,0x15
    2cbc:	02060613          	add	a2,a2,32 # 17cd8 <__sglue>
    2cc0:	00000597          	auipc	a1,0x0
    2cc4:	bf058593          	add	a1,a1,-1040 # 28b0 <__fp_lock>
    2cc8:	00000513          	li	a0,0
    2ccc:	01010113          	add	sp,sp,16
    2cd0:	3340006f          	j	3004 <_fwalk_sglue>

00002cd4 <__fp_unlock_all>:
    2cd4:	ff010113          	add	sp,sp,-16
    2cd8:	00015617          	auipc	a2,0x15
    2cdc:	00060613          	mv	a2,a2
    2ce0:	00000597          	auipc	a1,0x0
    2ce4:	c1058593          	add	a1,a1,-1008 # 28f0 <__fp_unlock>
    2ce8:	00000513          	li	a0,0
    2cec:	00112623          	sw	ra,12(sp)
    2cf0:	314000ef          	jal	3004 <_fwalk_sglue>
    2cf4:	00c12083          	lw	ra,12(sp)
    2cf8:	00017517          	auipc	a0,0x17
    2cfc:	ed850513          	add	a0,a0,-296 # 19bd0 <__lock___sfp_recursive_mutex>
    2d00:	01010113          	add	sp,sp,16
    2d04:	3200106f          	j	4024 <__retarget_lock_release_recursive>

00002d08 <setvbuf>:
    2d08:	fd010113          	add	sp,sp,-48
    2d0c:	02812423          	sw	s0,40(sp)
    2d10:	02912223          	sw	s1,36(sp)
    2d14:	03212023          	sw	s2,32(sp)
    2d18:	01312e23          	sw	s3,28(sp)
    2d1c:	01412c23          	sw	s4,24(sp)
    2d20:	02112623          	sw	ra,44(sp)
    2d24:	8201aa03          	lw	s4,-2016(gp) # 18278 <_impure_ptr>
    2d28:	00050413          	mv	s0,a0
    2d2c:	00058913          	mv	s2,a1
    2d30:	00060993          	mv	s3,a2
    2d34:	00068493          	mv	s1,a3
    2d38:	000a0663          	beqz	s4,2d44 <setvbuf+0x3c>
    2d3c:	034a2783          	lw	a5,52(s4)
    2d40:	20078a63          	beqz	a5,2f54 <setvbuf+0x24c>
    2d44:	00200793          	li	a5,2
    2d48:	00f98863          	beq	s3,a5,2d58 <setvbuf+0x50>
    2d4c:	00100793          	li	a5,1
    2d50:	2137e863          	bltu	a5,s3,2f60 <setvbuf+0x258>
    2d54:	2004c663          	bltz	s1,2f60 <setvbuf+0x258>
    2d58:	06442783          	lw	a5,100(s0)
    2d5c:	0017f793          	and	a5,a5,1
    2d60:	10078863          	beqz	a5,2e70 <setvbuf+0x168>
    2d64:	00040593          	mv	a1,s0
    2d68:	000a0513          	mv	a0,s4
    2d6c:	7b1010ef          	jal	4d1c <_fflush_r>
    2d70:	03042583          	lw	a1,48(s0)
    2d74:	00058c63          	beqz	a1,2d8c <setvbuf+0x84>
    2d78:	04040793          	add	a5,s0,64
    2d7c:	00f58663          	beq	a1,a5,2d88 <setvbuf+0x80>
    2d80:	000a0513          	mv	a0,s4
    2d84:	245010ef          	jal	47c8 <_free_r>
    2d88:	02042823          	sw	zero,48(s0)
    2d8c:	00c41783          	lh	a5,12(s0)
    2d90:	00042c23          	sw	zero,24(s0)
    2d94:	00042223          	sw	zero,4(s0)
    2d98:	0807f713          	and	a4,a5,128
    2d9c:	14071263          	bnez	a4,2ee0 <setvbuf+0x1d8>
    2da0:	fffff737          	lui	a4,0xfffff
    2da4:	35c70713          	add	a4,a4,860 # fffff35c <__alt_data_end+0xfffcd35c>
    2da8:	00e7f7b3          	and	a5,a5,a4
    2dac:	00f41623          	sh	a5,12(s0)
    2db0:	00200713          	li	a4,2
    2db4:	14e98a63          	beq	s3,a4,2f08 <setvbuf+0x200>
    2db8:	00c10693          	add	a3,sp,12
    2dbc:	00810613          	add	a2,sp,8
    2dc0:	00040593          	mv	a1,s0
    2dc4:	000a0513          	mv	a0,s4
    2dc8:	0d0010ef          	jal	3e98 <__swhatbuf_r>
    2dcc:	00c45783          	lhu	a5,12(s0)
    2dd0:	00a7e7b3          	or	a5,a5,a0
    2dd4:	00f41623          	sh	a5,12(s0)
    2dd8:	0a048863          	beqz	s1,2e88 <setvbuf+0x180>
    2ddc:	0a090863          	beqz	s2,2e8c <setvbuf+0x184>
    2de0:	034a2783          	lw	a5,52(s4)
    2de4:	0c078663          	beqz	a5,2eb0 <setvbuf+0x1a8>
    2de8:	00812703          	lw	a4,8(sp)
    2dec:	00c41783          	lh	a5,12(s0)
    2df0:	00970a63          	beq	a4,s1,2e04 <setvbuf+0xfc>
    2df4:	00001737          	lui	a4,0x1
    2df8:	80070713          	add	a4,a4,-2048 # 800 <decrypt+0xc>
    2dfc:	00e7e7b3          	or	a5,a5,a4
    2e00:	00f41623          	sh	a5,12(s0)
    2e04:	00100713          	li	a4,1
    2e08:	00e99663          	bne	s3,a4,2e14 <setvbuf+0x10c>
    2e0c:	0017e793          	or	a5,a5,1
    2e10:	00f41623          	sh	a5,12(s0)
    2e14:	01242023          	sw	s2,0(s0)
    2e18:	01242823          	sw	s2,16(s0)
    2e1c:	00942a23          	sw	s1,20(s0)
    2e20:	0087f713          	and	a4,a5,8
    2e24:	08070c63          	beqz	a4,2ebc <setvbuf+0x1b4>
    2e28:	0017f713          	and	a4,a5,1
    2e2c:	12070063          	beqz	a4,2f4c <setvbuf+0x244>
    2e30:	06442703          	lw	a4,100(s0)
    2e34:	409004b3          	neg	s1,s1
    2e38:	00042423          	sw	zero,8(s0)
    2e3c:	00942c23          	sw	s1,24(s0)
    2e40:	00177713          	and	a4,a4,1
    2e44:	08070463          	beqz	a4,2ecc <setvbuf+0x1c4>
    2e48:	00000493          	li	s1,0
    2e4c:	02c12083          	lw	ra,44(sp)
    2e50:	02812403          	lw	s0,40(sp)
    2e54:	02012903          	lw	s2,32(sp)
    2e58:	01c12983          	lw	s3,28(sp)
    2e5c:	01812a03          	lw	s4,24(sp)
    2e60:	00048513          	mv	a0,s1
    2e64:	02412483          	lw	s1,36(sp)
    2e68:	03010113          	add	sp,sp,48
    2e6c:	00008067          	ret
    2e70:	00c45783          	lhu	a5,12(s0)
    2e74:	2007f793          	and	a5,a5,512
    2e78:	ee0796e3          	bnez	a5,2d64 <setvbuf+0x5c>
    2e7c:	05842503          	lw	a0,88(s0)
    2e80:	18c010ef          	jal	400c <__retarget_lock_acquire_recursive>
    2e84:	ee1ff06f          	j	2d64 <setvbuf+0x5c>
    2e88:	00812483          	lw	s1,8(sp)
    2e8c:	00048513          	mv	a0,s1
    2e90:	454000ef          	jal	32e4 <malloc>
    2e94:	00050913          	mv	s2,a0
    2e98:	0c050863          	beqz	a0,2f68 <setvbuf+0x260>
    2e9c:	00c45783          	lhu	a5,12(s0)
    2ea0:	0807e793          	or	a5,a5,128
    2ea4:	00f41623          	sh	a5,12(s0)
    2ea8:	034a2783          	lw	a5,52(s4)
    2eac:	f2079ee3          	bnez	a5,2de8 <setvbuf+0xe0>
    2eb0:	000a0513          	mv	a0,s4
    2eb4:	d65ff0ef          	jal	2c18 <__sinit>
    2eb8:	f31ff06f          	j	2de8 <setvbuf+0xe0>
    2ebc:	00042423          	sw	zero,8(s0)
    2ec0:	06442703          	lw	a4,100(s0)
    2ec4:	00177713          	and	a4,a4,1
    2ec8:	f80710e3          	bnez	a4,2e48 <setvbuf+0x140>
    2ecc:	2007f793          	and	a5,a5,512
    2ed0:	f6079ce3          	bnez	a5,2e48 <setvbuf+0x140>
    2ed4:	05842503          	lw	a0,88(s0)
    2ed8:	14c010ef          	jal	4024 <__retarget_lock_release_recursive>
    2edc:	f6dff06f          	j	2e48 <setvbuf+0x140>
    2ee0:	01042583          	lw	a1,16(s0)
    2ee4:	000a0513          	mv	a0,s4
    2ee8:	0e1010ef          	jal	47c8 <_free_r>
    2eec:	00c41783          	lh	a5,12(s0)
    2ef0:	fffff737          	lui	a4,0xfffff
    2ef4:	35c70713          	add	a4,a4,860 # fffff35c <__alt_data_end+0xfffcd35c>
    2ef8:	00e7f7b3          	and	a5,a5,a4
    2efc:	00f41623          	sh	a5,12(s0)
    2f00:	00200713          	li	a4,2
    2f04:	eae99ae3          	bne	s3,a4,2db8 <setvbuf+0xb0>
    2f08:	00000493          	li	s1,0
    2f0c:	06442703          	lw	a4,100(s0)
    2f10:	04340693          	add	a3,s0,67
    2f14:	0027e613          	or	a2,a5,2
    2f18:	00d42023          	sw	a3,0(s0)
    2f1c:	00d42823          	sw	a3,16(s0)
    2f20:	00100693          	li	a3,1
    2f24:	00c41623          	sh	a2,12(s0)
    2f28:	00042423          	sw	zero,8(s0)
    2f2c:	00d42a23          	sw	a3,20(s0)
    2f30:	00177713          	and	a4,a4,1
    2f34:	f0071ce3          	bnez	a4,2e4c <setvbuf+0x144>
    2f38:	2007f793          	and	a5,a5,512
    2f3c:	f00798e3          	bnez	a5,2e4c <setvbuf+0x144>
    2f40:	05842503          	lw	a0,88(s0)
    2f44:	0e0010ef          	jal	4024 <__retarget_lock_release_recursive>
    2f48:	f05ff06f          	j	2e4c <setvbuf+0x144>
    2f4c:	00942423          	sw	s1,8(s0)
    2f50:	f71ff06f          	j	2ec0 <setvbuf+0x1b8>
    2f54:	000a0513          	mv	a0,s4
    2f58:	cc1ff0ef          	jal	2c18 <__sinit>
    2f5c:	de9ff06f          	j	2d44 <setvbuf+0x3c>
    2f60:	fff00493          	li	s1,-1
    2f64:	ee9ff06f          	j	2e4c <setvbuf+0x144>
    2f68:	01512a23          	sw	s5,20(sp)
    2f6c:	00812a83          	lw	s5,8(sp)
    2f70:	029a8063          	beq	s5,s1,2f90 <setvbuf+0x288>
    2f74:	000a8513          	mv	a0,s5
    2f78:	36c000ef          	jal	32e4 <malloc>
    2f7c:	00050913          	mv	s2,a0
    2f80:	000a8493          	mv	s1,s5
    2f84:	00050663          	beqz	a0,2f90 <setvbuf+0x288>
    2f88:	01412a83          	lw	s5,20(sp)
    2f8c:	f11ff06f          	j	2e9c <setvbuf+0x194>
    2f90:	00c41783          	lh	a5,12(s0)
    2f94:	01412a83          	lw	s5,20(sp)
    2f98:	fff00493          	li	s1,-1
    2f9c:	f71ff06f          	j	2f0c <setvbuf+0x204>

00002fa0 <_open_r>:
    2fa0:	ff010113          	add	sp,sp,-16
    2fa4:	00058713          	mv	a4,a1
    2fa8:	00812423          	sw	s0,8(sp)
    2fac:	00060593          	mv	a1,a2
    2fb0:	00050413          	mv	s0,a0
    2fb4:	00068613          	mv	a2,a3
    2fb8:	00070513          	mv	a0,a4
    2fbc:	00017797          	auipc	a5,0x17
    2fc0:	bc07ae23          	sw	zero,-1060(a5) # 19b98 <errno>
    2fc4:	00112623          	sw	ra,12(sp)
    2fc8:	508120ef          	jal	154d0 <_open>
    2fcc:	fff00793          	li	a5,-1
    2fd0:	00f50a63          	beq	a0,a5,2fe4 <_open_r+0x44>
    2fd4:	00c12083          	lw	ra,12(sp)
    2fd8:	00812403          	lw	s0,8(sp)
    2fdc:	01010113          	add	sp,sp,16
    2fe0:	00008067          	ret
    2fe4:	00017797          	auipc	a5,0x17
    2fe8:	bb47a783          	lw	a5,-1100(a5) # 19b98 <errno>
    2fec:	fe0784e3          	beqz	a5,2fd4 <_open_r+0x34>
    2ff0:	00c12083          	lw	ra,12(sp)
    2ff4:	00f42023          	sw	a5,0(s0)
    2ff8:	00812403          	lw	s0,8(sp)
    2ffc:	01010113          	add	sp,sp,16
    3000:	00008067          	ret

00003004 <_fwalk_sglue>:
    3004:	fd010113          	add	sp,sp,-48
    3008:	03212023          	sw	s2,32(sp)
    300c:	01312e23          	sw	s3,28(sp)
    3010:	01412c23          	sw	s4,24(sp)
    3014:	01512a23          	sw	s5,20(sp)
    3018:	01612823          	sw	s6,16(sp)
    301c:	01712623          	sw	s7,12(sp)
    3020:	02112623          	sw	ra,44(sp)
    3024:	02812423          	sw	s0,40(sp)
    3028:	02912223          	sw	s1,36(sp)
    302c:	00050b13          	mv	s6,a0
    3030:	00058b93          	mv	s7,a1
    3034:	00060a93          	mv	s5,a2
    3038:	00000a13          	li	s4,0
    303c:	00100993          	li	s3,1
    3040:	fff00913          	li	s2,-1
    3044:	004aa483          	lw	s1,4(s5)
    3048:	008aa403          	lw	s0,8(s5)
    304c:	fff48493          	add	s1,s1,-1
    3050:	0204c863          	bltz	s1,3080 <_fwalk_sglue+0x7c>
    3054:	00c45783          	lhu	a5,12(s0)
    3058:	00f9fe63          	bgeu	s3,a5,3074 <_fwalk_sglue+0x70>
    305c:	00e41783          	lh	a5,14(s0)
    3060:	00040593          	mv	a1,s0
    3064:	000b0513          	mv	a0,s6
    3068:	01278663          	beq	a5,s2,3074 <_fwalk_sglue+0x70>
    306c:	000b80e7          	jalr	s7
    3070:	00aa6a33          	or	s4,s4,a0
    3074:	fff48493          	add	s1,s1,-1
    3078:	06840413          	add	s0,s0,104
    307c:	fd249ce3          	bne	s1,s2,3054 <_fwalk_sglue+0x50>
    3080:	000aaa83          	lw	s5,0(s5)
    3084:	fc0a90e3          	bnez	s5,3044 <_fwalk_sglue+0x40>
    3088:	02c12083          	lw	ra,44(sp)
    308c:	02812403          	lw	s0,40(sp)
    3090:	02412483          	lw	s1,36(sp)
    3094:	02012903          	lw	s2,32(sp)
    3098:	01c12983          	lw	s3,28(sp)
    309c:	01412a83          	lw	s5,20(sp)
    30a0:	01012b03          	lw	s6,16(sp)
    30a4:	00c12b83          	lw	s7,12(sp)
    30a8:	000a0513          	mv	a0,s4
    30ac:	01812a03          	lw	s4,24(sp)
    30b0:	03010113          	add	sp,sp,48
    30b4:	00008067          	ret

000030b8 <__sread>:
    30b8:	ff010113          	add	sp,sp,-16
    30bc:	00812423          	sw	s0,8(sp)
    30c0:	00058413          	mv	s0,a1
    30c4:	00e59583          	lh	a1,14(a1)
    30c8:	00112623          	sw	ra,12(sp)
    30cc:	4b4020ef          	jal	5580 <_read_r>
    30d0:	02054063          	bltz	a0,30f0 <__sread+0x38>
    30d4:	05042783          	lw	a5,80(s0)
    30d8:	00c12083          	lw	ra,12(sp)
    30dc:	00a787b3          	add	a5,a5,a0
    30e0:	04f42823          	sw	a5,80(s0)
    30e4:	00812403          	lw	s0,8(sp)
    30e8:	01010113          	add	sp,sp,16
    30ec:	00008067          	ret
    30f0:	00c45783          	lhu	a5,12(s0)
    30f4:	fffff737          	lui	a4,0xfffff
    30f8:	fff70713          	add	a4,a4,-1 # ffffefff <__alt_data_end+0xfffccfff>
    30fc:	00e7f7b3          	and	a5,a5,a4
    3100:	00c12083          	lw	ra,12(sp)
    3104:	00f41623          	sh	a5,12(s0)
    3108:	00812403          	lw	s0,8(sp)
    310c:	01010113          	add	sp,sp,16
    3110:	00008067          	ret

00003114 <__seofread>:
    3114:	00000513          	li	a0,0
    3118:	00008067          	ret

0000311c <__swrite>:
    311c:	00c59783          	lh	a5,12(a1)
    3120:	fe010113          	add	sp,sp,-32
    3124:	00812c23          	sw	s0,24(sp)
    3128:	00912a23          	sw	s1,20(sp)
    312c:	01212823          	sw	s2,16(sp)
    3130:	01312623          	sw	s3,12(sp)
    3134:	00112e23          	sw	ra,28(sp)
    3138:	1007f713          	and	a4,a5,256
    313c:	00058413          	mv	s0,a1
    3140:	00050493          	mv	s1,a0
    3144:	00060913          	mv	s2,a2
    3148:	00068993          	mv	s3,a3
    314c:	04071063          	bnez	a4,318c <__swrite+0x70>
    3150:	fffff737          	lui	a4,0xfffff
    3154:	fff70713          	add	a4,a4,-1 # ffffefff <__alt_data_end+0xfffccfff>
    3158:	00e7f7b3          	and	a5,a5,a4
    315c:	00e41583          	lh	a1,14(s0)
    3160:	00f41623          	sh	a5,12(s0)
    3164:	01812403          	lw	s0,24(sp)
    3168:	01c12083          	lw	ra,28(sp)
    316c:	00098693          	mv	a3,s3
    3170:	00090613          	mv	a2,s2
    3174:	00c12983          	lw	s3,12(sp)
    3178:	01012903          	lw	s2,16(sp)
    317c:	00048513          	mv	a0,s1
    3180:	01412483          	lw	s1,20(sp)
    3184:	02010113          	add	sp,sp,32
    3188:	3150006f          	j	3c9c <_write_r>
    318c:	00e59583          	lh	a1,14(a1)
    3190:	00200693          	li	a3,2
    3194:	00000613          	li	a2,0
    3198:	384020ef          	jal	551c <_lseek_r>
    319c:	00c41783          	lh	a5,12(s0)
    31a0:	fb1ff06f          	j	3150 <__swrite+0x34>

000031a4 <__sseek>:
    31a4:	ff010113          	add	sp,sp,-16
    31a8:	00812423          	sw	s0,8(sp)
    31ac:	00058413          	mv	s0,a1
    31b0:	00e59583          	lh	a1,14(a1)
    31b4:	00112623          	sw	ra,12(sp)
    31b8:	364020ef          	jal	551c <_lseek_r>
    31bc:	fff00793          	li	a5,-1
    31c0:	02f50863          	beq	a0,a5,31f0 <__sseek+0x4c>
    31c4:	00c45783          	lhu	a5,12(s0)
    31c8:	00001737          	lui	a4,0x1
    31cc:	00c12083          	lw	ra,12(sp)
    31d0:	00e7e7b3          	or	a5,a5,a4
    31d4:	01079793          	sll	a5,a5,0x10
    31d8:	4107d793          	sra	a5,a5,0x10
    31dc:	04a42823          	sw	a0,80(s0)
    31e0:	00f41623          	sh	a5,12(s0)
    31e4:	00812403          	lw	s0,8(sp)
    31e8:	01010113          	add	sp,sp,16
    31ec:	00008067          	ret
    31f0:	00c45783          	lhu	a5,12(s0)
    31f4:	fffff737          	lui	a4,0xfffff
    31f8:	fff70713          	add	a4,a4,-1 # ffffefff <__alt_data_end+0xfffccfff>
    31fc:	00e7f7b3          	and	a5,a5,a4
    3200:	01079793          	sll	a5,a5,0x10
    3204:	4107d793          	sra	a5,a5,0x10
    3208:	00c12083          	lw	ra,12(sp)
    320c:	00f41623          	sh	a5,12(s0)
    3210:	00812403          	lw	s0,8(sp)
    3214:	01010113          	add	sp,sp,16
    3218:	00008067          	ret

0000321c <__sclose>:
    321c:	00e59583          	lh	a1,14(a1)
    3220:	4ad0106f          	j	4ecc <_close_r>

00003224 <__stack_chk_fail>:
    3224:	00013797          	auipc	a5,0x13
    3228:	e4878793          	add	a5,a5,-440 # 1606c <S1+0x104>
    322c:	0007af83          	lw	t6,0(a5)
    3230:	0047af03          	lw	t5,4(a5)
    3234:	0087ae83          	lw	t4,8(a5)
    3238:	00c7ae03          	lw	t3,12(a5)
    323c:	0107a303          	lw	t1,16(a5)
    3240:	0147a883          	lw	a7,20(a5)
    3244:	0187a803          	lw	a6,24(a5)
    3248:	0247a683          	lw	a3,36(a5)
    324c:	0287a703          	lw	a4,40(a5)
    3250:	01c7a583          	lw	a1,28(a5)
    3254:	0207a603          	lw	a2,32(a5)
    3258:	02c7c783          	lbu	a5,44(a5)
    325c:	fc010113          	add	sp,sp,-64
    3260:	00010513          	mv	a0,sp
    3264:	02112e23          	sw	ra,60(sp)
    3268:	01f12023          	sw	t6,0(sp)
    326c:	01e12223          	sw	t5,4(sp)
    3270:	01d12423          	sw	t4,8(sp)
    3274:	01c12623          	sw	t3,12(sp)
    3278:	00612823          	sw	t1,16(sp)
    327c:	01112a23          	sw	a7,20(sp)
    3280:	01012c23          	sw	a6,24(sp)
    3284:	02d12223          	sw	a3,36(sp)
    3288:	02e12423          	sw	a4,40(sp)
    328c:	02f10623          	sb	a5,44(sp)
    3290:	00b12e23          	sw	a1,28(sp)
    3294:	02c12023          	sw	a2,32(sp)
    3298:	224010ef          	jal	44bc <strlen>
    329c:	00050613          	mv	a2,a0
    32a0:	00010593          	mv	a1,sp
    32a4:	00200513          	li	a0,2
    32a8:	2ec050ef          	jal	8594 <write>
    32ac:	00600513          	li	a0,6
    32b0:	771010ef          	jal	5220 <raise>
    32b4:	07f00513          	li	a0,127
    32b8:	3ed110ef          	jal	14ea4 <_exit>

000032bc <__stack_chk_fail_local>:
    32bc:	ff010113          	add	sp,sp,-16
    32c0:	00112623          	sw	ra,12(sp)
    32c4:	f61ff0ef          	jal	3224 <__stack_chk_fail>

000032c8 <__stack_chk_init>:
    32c8:	00017797          	auipc	a5,0x17
    32cc:	8d878793          	add	a5,a5,-1832 # 19ba0 <__stack_chk_guard>
    32d0:	0007a703          	lw	a4,0(a5)
    32d4:	00071663          	bnez	a4,32e0 <__stack_chk_init+0x18>
    32d8:	ff0a0737          	lui	a4,0xff0a0
    32dc:	00e7a023          	sw	a4,0(a5)
    32e0:	00008067          	ret

000032e4 <malloc>:
    32e4:	00050593          	mv	a1,a0
    32e8:	8201a503          	lw	a0,-2016(gp) # 18278 <_impure_ptr>
    32ec:	0100006f          	j	32fc <_malloc_r>

000032f0 <free>:
    32f0:	00050593          	mv	a1,a0
    32f4:	8201a503          	lw	a0,-2016(gp) # 18278 <_impure_ptr>
    32f8:	4d00106f          	j	47c8 <_free_r>

000032fc <_malloc_r>:
    32fc:	fd010113          	add	sp,sp,-48
    3300:	03212023          	sw	s2,32(sp)
    3304:	02112623          	sw	ra,44(sp)
    3308:	02812423          	sw	s0,40(sp)
    330c:	02912223          	sw	s1,36(sp)
    3310:	01312e23          	sw	s3,28(sp)
    3314:	00b58793          	add	a5,a1,11
    3318:	01600713          	li	a4,22
    331c:	00050913          	mv	s2,a0
    3320:	08f76263          	bltu	a4,a5,33a4 <_malloc_r+0xa8>
    3324:	01000793          	li	a5,16
    3328:	20b7e663          	bltu	a5,a1,3534 <_malloc_r+0x238>
    332c:	445000ef          	jal	3f70 <__malloc_lock>
    3330:	01800793          	li	a5,24
    3334:	00200593          	li	a1,2
    3338:	01000493          	li	s1,16
    333c:	00015997          	auipc	s3,0x15
    3340:	9a898993          	add	s3,s3,-1624 # 17ce4 <__malloc_av_>
    3344:	00f987b3          	add	a5,s3,a5
    3348:	0047a403          	lw	s0,4(a5)
    334c:	ff878713          	add	a4,a5,-8
    3350:	36e40263          	beq	s0,a4,36b4 <_malloc_r+0x3b8>
    3354:	00442783          	lw	a5,4(s0)
    3358:	00c42683          	lw	a3,12(s0)
    335c:	00842603          	lw	a2,8(s0)
    3360:	ffc7f793          	and	a5,a5,-4
    3364:	00f407b3          	add	a5,s0,a5
    3368:	0047a703          	lw	a4,4(a5)
    336c:	00d62623          	sw	a3,12(a2) # 17ce4 <__malloc_av_>
    3370:	00c6a423          	sw	a2,8(a3)
    3374:	00176713          	or	a4,a4,1
    3378:	00090513          	mv	a0,s2
    337c:	00e7a223          	sw	a4,4(a5)
    3380:	3fd000ef          	jal	3f7c <__malloc_unlock>
    3384:	00840513          	add	a0,s0,8
    3388:	02c12083          	lw	ra,44(sp)
    338c:	02812403          	lw	s0,40(sp)
    3390:	02412483          	lw	s1,36(sp)
    3394:	02012903          	lw	s2,32(sp)
    3398:	01c12983          	lw	s3,28(sp)
    339c:	03010113          	add	sp,sp,48
    33a0:	00008067          	ret
    33a4:	ff87f493          	and	s1,a5,-8
    33a8:	1807c663          	bltz	a5,3534 <_malloc_r+0x238>
    33ac:	18b4e463          	bltu	s1,a1,3534 <_malloc_r+0x238>
    33b0:	3c1000ef          	jal	3f70 <__malloc_lock>
    33b4:	1f700793          	li	a5,503
    33b8:	4097f863          	bgeu	a5,s1,37c8 <_malloc_r+0x4cc>
    33bc:	0094d793          	srl	a5,s1,0x9
    33c0:	18078263          	beqz	a5,3544 <_malloc_r+0x248>
    33c4:	00400713          	li	a4,4
    33c8:	34f76e63          	bltu	a4,a5,3724 <_malloc_r+0x428>
    33cc:	0064d793          	srl	a5,s1,0x6
    33d0:	03978593          	add	a1,a5,57
    33d4:	03878813          	add	a6,a5,56
    33d8:	00359613          	sll	a2,a1,0x3
    33dc:	00015997          	auipc	s3,0x15
    33e0:	90898993          	add	s3,s3,-1784 # 17ce4 <__malloc_av_>
    33e4:	00c98633          	add	a2,s3,a2
    33e8:	00462403          	lw	s0,4(a2)
    33ec:	ff860613          	add	a2,a2,-8
    33f0:	02860863          	beq	a2,s0,3420 <_malloc_r+0x124>
    33f4:	00f00513          	li	a0,15
    33f8:	0140006f          	j	340c <_malloc_r+0x110>
    33fc:	00c42683          	lw	a3,12(s0)
    3400:	2a075663          	bgez	a4,36ac <_malloc_r+0x3b0>
    3404:	00d60e63          	beq	a2,a3,3420 <_malloc_r+0x124>
    3408:	00068413          	mv	s0,a3
    340c:	00442783          	lw	a5,4(s0)
    3410:	ffc7f793          	and	a5,a5,-4
    3414:	40978733          	sub	a4,a5,s1
    3418:	fee552e3          	bge	a0,a4,33fc <_malloc_r+0x100>
    341c:	00080593          	mv	a1,a6
    3420:	0109a403          	lw	s0,16(s3)
    3424:	00015897          	auipc	a7,0x15
    3428:	8c888893          	add	a7,a7,-1848 # 17cec <__malloc_av_+0x8>
    342c:	27140c63          	beq	s0,a7,36a4 <_malloc_r+0x3a8>
    3430:	00442783          	lw	a5,4(s0)
    3434:	00f00693          	li	a3,15
    3438:	ffc7f793          	and	a5,a5,-4
    343c:	40978733          	sub	a4,a5,s1
    3440:	38e6ca63          	blt	a3,a4,37d4 <_malloc_r+0x4d8>
    3444:	0119aa23          	sw	a7,20(s3)
    3448:	0119a823          	sw	a7,16(s3)
    344c:	34075e63          	bgez	a4,37a8 <_malloc_r+0x4ac>
    3450:	1ff00713          	li	a4,511
    3454:	0049a503          	lw	a0,4(s3)
    3458:	26f76663          	bltu	a4,a5,36c4 <_malloc_r+0x3c8>
    345c:	ff87f713          	and	a4,a5,-8
    3460:	00870713          	add	a4,a4,8 # ff0a0008 <__alt_data_end+0xff06e008>
    3464:	00e98733          	add	a4,s3,a4
    3468:	00072683          	lw	a3,0(a4)
    346c:	0057d613          	srl	a2,a5,0x5
    3470:	00100793          	li	a5,1
    3474:	00c797b3          	sll	a5,a5,a2
    3478:	00f56533          	or	a0,a0,a5
    347c:	ff870793          	add	a5,a4,-8
    3480:	00f42623          	sw	a5,12(s0)
    3484:	00d42423          	sw	a3,8(s0)
    3488:	00a9a223          	sw	a0,4(s3)
    348c:	00872023          	sw	s0,0(a4)
    3490:	0086a623          	sw	s0,12(a3)
    3494:	4025d793          	sra	a5,a1,0x2
    3498:	00100613          	li	a2,1
    349c:	00f61633          	sll	a2,a2,a5
    34a0:	0ac56a63          	bltu	a0,a2,3554 <_malloc_r+0x258>
    34a4:	00a677b3          	and	a5,a2,a0
    34a8:	02079463          	bnez	a5,34d0 <_malloc_r+0x1d4>
    34ac:	00161613          	sll	a2,a2,0x1
    34b0:	ffc5f593          	and	a1,a1,-4
    34b4:	00a677b3          	and	a5,a2,a0
    34b8:	00458593          	add	a1,a1,4
    34bc:	00079a63          	bnez	a5,34d0 <_malloc_r+0x1d4>
    34c0:	00161613          	sll	a2,a2,0x1
    34c4:	00a677b3          	and	a5,a2,a0
    34c8:	00458593          	add	a1,a1,4
    34cc:	fe078ae3          	beqz	a5,34c0 <_malloc_r+0x1c4>
    34d0:	00f00813          	li	a6,15
    34d4:	00359313          	sll	t1,a1,0x3
    34d8:	00698333          	add	t1,s3,t1
    34dc:	00030513          	mv	a0,t1
    34e0:	00c52783          	lw	a5,12(a0)
    34e4:	00058e13          	mv	t3,a1
    34e8:	26f50063          	beq	a0,a5,3748 <_malloc_r+0x44c>
    34ec:	0047a703          	lw	a4,4(a5)
    34f0:	00078413          	mv	s0,a5
    34f4:	00c7a783          	lw	a5,12(a5)
    34f8:	ffc77713          	and	a4,a4,-4
    34fc:	409706b3          	sub	a3,a4,s1
    3500:	26d84063          	blt	a6,a3,3760 <_malloc_r+0x464>
    3504:	fe06c2e3          	bltz	a3,34e8 <_malloc_r+0x1ec>
    3508:	00e40733          	add	a4,s0,a4
    350c:	00472683          	lw	a3,4(a4)
    3510:	00842603          	lw	a2,8(s0)
    3514:	00090513          	mv	a0,s2
    3518:	0016e693          	or	a3,a3,1
    351c:	00d72223          	sw	a3,4(a4)
    3520:	00f62623          	sw	a5,12(a2)
    3524:	00c7a423          	sw	a2,8(a5)
    3528:	255000ef          	jal	3f7c <__malloc_unlock>
    352c:	00840513          	add	a0,s0,8
    3530:	e59ff06f          	j	3388 <_malloc_r+0x8c>
    3534:	00c00793          	li	a5,12
    3538:	00f92023          	sw	a5,0(s2)
    353c:	00000513          	li	a0,0
    3540:	e49ff06f          	j	3388 <_malloc_r+0x8c>
    3544:	20000613          	li	a2,512
    3548:	04000593          	li	a1,64
    354c:	03f00813          	li	a6,63
    3550:	e8dff06f          	j	33dc <_malloc_r+0xe0>
    3554:	0089a403          	lw	s0,8(s3)
    3558:	01612823          	sw	s6,16(sp)
    355c:	00442783          	lw	a5,4(s0)
    3560:	ffc7fb13          	and	s6,a5,-4
    3564:	009b6863          	bltu	s6,s1,3574 <_malloc_r+0x278>
    3568:	409b0733          	sub	a4,s6,s1
    356c:	00f00793          	li	a5,15
    3570:	0ee7c863          	blt	a5,a4,3660 <_malloc_r+0x364>
    3574:	01912223          	sw	s9,4(sp)
    3578:	82418c93          	add	s9,gp,-2012 # 1827c <__malloc_sbrk_base>
    357c:	000ca703          	lw	a4,0(s9)
    3580:	01412c23          	sw	s4,24(sp)
    3584:	01512a23          	sw	s5,20(sp)
    3588:	01712623          	sw	s7,12(sp)
    358c:	00016a97          	auipc	s5,0x16
    3590:	620aaa83          	lw	s5,1568(s5) # 19bac <__malloc_top_pad>
    3594:	fff00793          	li	a5,-1
    3598:	01640a33          	add	s4,s0,s6
    359c:	01548ab3          	add	s5,s1,s5
    35a0:	3ef70263          	beq	a4,a5,3984 <_malloc_r+0x688>
    35a4:	000017b7          	lui	a5,0x1
    35a8:	00f78793          	add	a5,a5,15 # 100f <altera_avalon_jtag_uart_init+0x1f>
    35ac:	00fa8ab3          	add	s5,s5,a5
    35b0:	fffff7b7          	lui	a5,0xfffff
    35b4:	00fafab3          	and	s5,s5,a5
    35b8:	000a8593          	mv	a1,s5
    35bc:	00090513          	mv	a0,s2
    35c0:	684000ef          	jal	3c44 <_sbrk_r>
    35c4:	fff00793          	li	a5,-1
    35c8:	00050b93          	mv	s7,a0
    35cc:	46f50663          	beq	a0,a5,3a38 <_malloc_r+0x73c>
    35d0:	01812423          	sw	s8,8(sp)
    35d4:	25456863          	bltu	a0,s4,3824 <_malloc_r+0x528>
    35d8:	00016c17          	auipc	s8,0x16
    35dc:	7b8c0c13          	add	s8,s8,1976 # 19d90 <__malloc_current_mallinfo>
    35e0:	000c2583          	lw	a1,0(s8)
    35e4:	00ba85b3          	add	a1,s5,a1
    35e8:	00bc2023          	sw	a1,0(s8)
    35ec:	00058713          	mv	a4,a1
    35f0:	2caa1063          	bne	s4,a0,38b0 <_malloc_r+0x5b4>
    35f4:	01451793          	sll	a5,a0,0x14
    35f8:	2a079c63          	bnez	a5,38b0 <_malloc_r+0x5b4>
    35fc:	0089ab83          	lw	s7,8(s3)
    3600:	015b07b3          	add	a5,s6,s5
    3604:	0017e793          	or	a5,a5,1
    3608:	00fba223          	sw	a5,4(s7)
    360c:	00016717          	auipc	a4,0x16
    3610:	59c70713          	add	a4,a4,1436 # 19ba8 <__malloc_max_sbrked_mem>
    3614:	00072683          	lw	a3,0(a4)
    3618:	00b6f463          	bgeu	a3,a1,3620 <_malloc_r+0x324>
    361c:	00b72023          	sw	a1,0(a4)
    3620:	00016717          	auipc	a4,0x16
    3624:	58470713          	add	a4,a4,1412 # 19ba4 <__malloc_max_total_mem>
    3628:	00072683          	lw	a3,0(a4)
    362c:	00b6f463          	bgeu	a3,a1,3634 <_malloc_r+0x338>
    3630:	00b72023          	sw	a1,0(a4)
    3634:	00812c03          	lw	s8,8(sp)
    3638:	000b8413          	mv	s0,s7
    363c:	ffc7f793          	and	a5,a5,-4
    3640:	40978733          	sub	a4,a5,s1
    3644:	3897ec63          	bltu	a5,s1,39dc <_malloc_r+0x6e0>
    3648:	00f00793          	li	a5,15
    364c:	38e7d863          	bge	a5,a4,39dc <_malloc_r+0x6e0>
    3650:	01812a03          	lw	s4,24(sp)
    3654:	01412a83          	lw	s5,20(sp)
    3658:	00c12b83          	lw	s7,12(sp)
    365c:	00412c83          	lw	s9,4(sp)
    3660:	0014e793          	or	a5,s1,1
    3664:	00f42223          	sw	a5,4(s0)
    3668:	009404b3          	add	s1,s0,s1
    366c:	0099a423          	sw	s1,8(s3)
    3670:	00176713          	or	a4,a4,1
    3674:	00090513          	mv	a0,s2
    3678:	00e4a223          	sw	a4,4(s1)
    367c:	101000ef          	jal	3f7c <__malloc_unlock>
    3680:	02c12083          	lw	ra,44(sp)
    3684:	00840513          	add	a0,s0,8
    3688:	02812403          	lw	s0,40(sp)
    368c:	01012b03          	lw	s6,16(sp)
    3690:	02412483          	lw	s1,36(sp)
    3694:	02012903          	lw	s2,32(sp)
    3698:	01c12983          	lw	s3,28(sp)
    369c:	03010113          	add	sp,sp,48
    36a0:	00008067          	ret
    36a4:	0049a503          	lw	a0,4(s3)
    36a8:	dedff06f          	j	3494 <_malloc_r+0x198>
    36ac:	00842603          	lw	a2,8(s0)
    36b0:	cb5ff06f          	j	3364 <_malloc_r+0x68>
    36b4:	00c7a403          	lw	s0,12(a5) # fffff00c <__alt_data_end+0xfffcd00c>
    36b8:	00258593          	add	a1,a1,2
    36bc:	d68782e3          	beq	a5,s0,3420 <_malloc_r+0x124>
    36c0:	c95ff06f          	j	3354 <_malloc_r+0x58>
    36c4:	0097d713          	srl	a4,a5,0x9
    36c8:	00400693          	li	a3,4
    36cc:	14e6f263          	bgeu	a3,a4,3810 <_malloc_r+0x514>
    36d0:	01400693          	li	a3,20
    36d4:	32e6e663          	bltu	a3,a4,3a00 <_malloc_r+0x704>
    36d8:	05c70613          	add	a2,a4,92
    36dc:	05b70693          	add	a3,a4,91
    36e0:	00361613          	sll	a2,a2,0x3
    36e4:	00c98633          	add	a2,s3,a2
    36e8:	00062703          	lw	a4,0(a2)
    36ec:	ff860613          	add	a2,a2,-8
    36f0:	00e61863          	bne	a2,a4,3700 <_malloc_r+0x404>
    36f4:	2980006f          	j	398c <_malloc_r+0x690>
    36f8:	00872703          	lw	a4,8(a4)
    36fc:	00e60863          	beq	a2,a4,370c <_malloc_r+0x410>
    3700:	00472683          	lw	a3,4(a4)
    3704:	ffc6f693          	and	a3,a3,-4
    3708:	fed7e8e3          	bltu	a5,a3,36f8 <_malloc_r+0x3fc>
    370c:	00c72603          	lw	a2,12(a4)
    3710:	00c42623          	sw	a2,12(s0)
    3714:	00e42423          	sw	a4,8(s0)
    3718:	00862423          	sw	s0,8(a2)
    371c:	00872623          	sw	s0,12(a4)
    3720:	d75ff06f          	j	3494 <_malloc_r+0x198>
    3724:	01400713          	li	a4,20
    3728:	10f77863          	bgeu	a4,a5,3838 <_malloc_r+0x53c>
    372c:	05400713          	li	a4,84
    3730:	2ef76663          	bltu	a4,a5,3a1c <_malloc_r+0x720>
    3734:	00c4d793          	srl	a5,s1,0xc
    3738:	06f78593          	add	a1,a5,111
    373c:	06e78813          	add	a6,a5,110
    3740:	00359613          	sll	a2,a1,0x3
    3744:	c99ff06f          	j	33dc <_malloc_r+0xe0>
    3748:	001e0e13          	add	t3,t3,1
    374c:	003e7793          	and	a5,t3,3
    3750:	00850513          	add	a0,a0,8
    3754:	10078063          	beqz	a5,3854 <_malloc_r+0x558>
    3758:	00c52783          	lw	a5,12(a0)
    375c:	d8dff06f          	j	34e8 <_malloc_r+0x1ec>
    3760:	00842603          	lw	a2,8(s0)
    3764:	0014e593          	or	a1,s1,1
    3768:	00b42223          	sw	a1,4(s0)
    376c:	00f62623          	sw	a5,12(a2)
    3770:	00c7a423          	sw	a2,8(a5)
    3774:	009404b3          	add	s1,s0,s1
    3778:	0099aa23          	sw	s1,20(s3)
    377c:	0099a823          	sw	s1,16(s3)
    3780:	0016e793          	or	a5,a3,1
    3784:	0114a623          	sw	a7,12(s1)
    3788:	0114a423          	sw	a7,8(s1)
    378c:	00f4a223          	sw	a5,4(s1)
    3790:	00e40733          	add	a4,s0,a4
    3794:	00090513          	mv	a0,s2
    3798:	00d72023          	sw	a3,0(a4)
    379c:	7e0000ef          	jal	3f7c <__malloc_unlock>
    37a0:	00840513          	add	a0,s0,8
    37a4:	be5ff06f          	j	3388 <_malloc_r+0x8c>
    37a8:	00f407b3          	add	a5,s0,a5
    37ac:	0047a703          	lw	a4,4(a5)
    37b0:	00090513          	mv	a0,s2
    37b4:	00176713          	or	a4,a4,1
    37b8:	00e7a223          	sw	a4,4(a5)
    37bc:	7c0000ef          	jal	3f7c <__malloc_unlock>
    37c0:	00840513          	add	a0,s0,8
    37c4:	bc5ff06f          	j	3388 <_malloc_r+0x8c>
    37c8:	0034d593          	srl	a1,s1,0x3
    37cc:	00848793          	add	a5,s1,8
    37d0:	b6dff06f          	j	333c <_malloc_r+0x40>
    37d4:	0014e693          	or	a3,s1,1
    37d8:	00d42223          	sw	a3,4(s0)
    37dc:	009404b3          	add	s1,s0,s1
    37e0:	0099aa23          	sw	s1,20(s3)
    37e4:	0099a823          	sw	s1,16(s3)
    37e8:	00176693          	or	a3,a4,1
    37ec:	0114a623          	sw	a7,12(s1)
    37f0:	0114a423          	sw	a7,8(s1)
    37f4:	00d4a223          	sw	a3,4(s1)
    37f8:	00f407b3          	add	a5,s0,a5
    37fc:	00090513          	mv	a0,s2
    3800:	00e7a023          	sw	a4,0(a5)
    3804:	778000ef          	jal	3f7c <__malloc_unlock>
    3808:	00840513          	add	a0,s0,8
    380c:	b7dff06f          	j	3388 <_malloc_r+0x8c>
    3810:	0067d713          	srl	a4,a5,0x6
    3814:	03970613          	add	a2,a4,57
    3818:	03870693          	add	a3,a4,56
    381c:	00361613          	sll	a2,a2,0x3
    3820:	ec5ff06f          	j	36e4 <_malloc_r+0x3e8>
    3824:	07340c63          	beq	s0,s3,389c <_malloc_r+0x5a0>
    3828:	0089a403          	lw	s0,8(s3)
    382c:	00812c03          	lw	s8,8(sp)
    3830:	00442783          	lw	a5,4(s0)
    3834:	e09ff06f          	j	363c <_malloc_r+0x340>
    3838:	05c78593          	add	a1,a5,92
    383c:	05b78813          	add	a6,a5,91
    3840:	00359613          	sll	a2,a1,0x3
    3844:	b99ff06f          	j	33dc <_malloc_r+0xe0>
    3848:	00832783          	lw	a5,8(t1)
    384c:	fff58593          	add	a1,a1,-1
    3850:	28679063          	bne	a5,t1,3ad0 <_malloc_r+0x7d4>
    3854:	0035f793          	and	a5,a1,3
    3858:	ff830313          	add	t1,t1,-8
    385c:	fe0796e3          	bnez	a5,3848 <_malloc_r+0x54c>
    3860:	0049a703          	lw	a4,4(s3)
    3864:	fff64793          	not	a5,a2
    3868:	00e7f7b3          	and	a5,a5,a4
    386c:	00f9a223          	sw	a5,4(s3)
    3870:	00161613          	sll	a2,a2,0x1
    3874:	cec7e0e3          	bltu	a5,a2,3554 <_malloc_r+0x258>
    3878:	cc060ee3          	beqz	a2,3554 <_malloc_r+0x258>
    387c:	00f67733          	and	a4,a2,a5
    3880:	00071a63          	bnez	a4,3894 <_malloc_r+0x598>
    3884:	00161613          	sll	a2,a2,0x1
    3888:	00f67733          	and	a4,a2,a5
    388c:	004e0e13          	add	t3,t3,4
    3890:	fe070ae3          	beqz	a4,3884 <_malloc_r+0x588>
    3894:	000e0593          	mv	a1,t3
    3898:	c3dff06f          	j	34d4 <_malloc_r+0x1d8>
    389c:	00016c17          	auipc	s8,0x16
    38a0:	4f4c0c13          	add	s8,s8,1268 # 19d90 <__malloc_current_mallinfo>
    38a4:	000c2703          	lw	a4,0(s8)
    38a8:	00ea8733          	add	a4,s5,a4
    38ac:	00ec2023          	sw	a4,0(s8)
    38b0:	000ca683          	lw	a3,0(s9)
    38b4:	fff00793          	li	a5,-1
    38b8:	18f68663          	beq	a3,a5,3a44 <_malloc_r+0x748>
    38bc:	414b87b3          	sub	a5,s7,s4
    38c0:	00e787b3          	add	a5,a5,a4
    38c4:	00fc2023          	sw	a5,0(s8)
    38c8:	007bfc93          	and	s9,s7,7
    38cc:	0c0c8c63          	beqz	s9,39a4 <_malloc_r+0x6a8>
    38d0:	419b8bb3          	sub	s7,s7,s9
    38d4:	000017b7          	lui	a5,0x1
    38d8:	00878793          	add	a5,a5,8 # 1008 <altera_avalon_jtag_uart_init+0x18>
    38dc:	008b8b93          	add	s7,s7,8
    38e0:	419785b3          	sub	a1,a5,s9
    38e4:	015b8ab3          	add	s5,s7,s5
    38e8:	415585b3          	sub	a1,a1,s5
    38ec:	01459593          	sll	a1,a1,0x14
    38f0:	0145da13          	srl	s4,a1,0x14
    38f4:	000a0593          	mv	a1,s4
    38f8:	00090513          	mv	a0,s2
    38fc:	348000ef          	jal	3c44 <_sbrk_r>
    3900:	fff00793          	li	a5,-1
    3904:	18f50063          	beq	a0,a5,3a84 <_malloc_r+0x788>
    3908:	41750533          	sub	a0,a0,s7
    390c:	01450ab3          	add	s5,a0,s4
    3910:	000c2703          	lw	a4,0(s8)
    3914:	0179a423          	sw	s7,8(s3)
    3918:	001ae793          	or	a5,s5,1
    391c:	00ea05b3          	add	a1,s4,a4
    3920:	00bc2023          	sw	a1,0(s8)
    3924:	00fba223          	sw	a5,4(s7)
    3928:	cf3402e3          	beq	s0,s3,360c <_malloc_r+0x310>
    392c:	00f00693          	li	a3,15
    3930:	0b66f063          	bgeu	a3,s6,39d0 <_malloc_r+0x6d4>
    3934:	00442703          	lw	a4,4(s0)
    3938:	ff4b0793          	add	a5,s6,-12
    393c:	ff87f793          	and	a5,a5,-8
    3940:	00177713          	and	a4,a4,1
    3944:	00f76733          	or	a4,a4,a5
    3948:	00e42223          	sw	a4,4(s0)
    394c:	00500613          	li	a2,5
    3950:	00f40733          	add	a4,s0,a5
    3954:	00c72223          	sw	a2,4(a4)
    3958:	00c72423          	sw	a2,8(a4)
    395c:	00f6e663          	bltu	a3,a5,3968 <_malloc_r+0x66c>
    3960:	004ba783          	lw	a5,4(s7)
    3964:	ca9ff06f          	j	360c <_malloc_r+0x310>
    3968:	00840593          	add	a1,s0,8
    396c:	00090513          	mv	a0,s2
    3970:	659000ef          	jal	47c8 <_free_r>
    3974:	0089ab83          	lw	s7,8(s3)
    3978:	000c2583          	lw	a1,0(s8)
    397c:	004ba783          	lw	a5,4(s7)
    3980:	c8dff06f          	j	360c <_malloc_r+0x310>
    3984:	010a8a93          	add	s5,s5,16
    3988:	c31ff06f          	j	35b8 <_malloc_r+0x2bc>
    398c:	4026d693          	sra	a3,a3,0x2
    3990:	00100793          	li	a5,1
    3994:	00d797b3          	sll	a5,a5,a3
    3998:	00f56533          	or	a0,a0,a5
    399c:	00a9a223          	sw	a0,4(s3)
    39a0:	d71ff06f          	j	3710 <_malloc_r+0x414>
    39a4:	015b85b3          	add	a1,s7,s5
    39a8:	40b005b3          	neg	a1,a1
    39ac:	01459593          	sll	a1,a1,0x14
    39b0:	0145da13          	srl	s4,a1,0x14
    39b4:	000a0593          	mv	a1,s4
    39b8:	00090513          	mv	a0,s2
    39bc:	288000ef          	jal	3c44 <_sbrk_r>
    39c0:	fff00793          	li	a5,-1
    39c4:	f4f512e3          	bne	a0,a5,3908 <_malloc_r+0x60c>
    39c8:	00000a13          	li	s4,0
    39cc:	f45ff06f          	j	3910 <_malloc_r+0x614>
    39d0:	00812c03          	lw	s8,8(sp)
    39d4:	00100793          	li	a5,1
    39d8:	00fba223          	sw	a5,4(s7)
    39dc:	00090513          	mv	a0,s2
    39e0:	59c000ef          	jal	3f7c <__malloc_unlock>
    39e4:	00000513          	li	a0,0
    39e8:	01812a03          	lw	s4,24(sp)
    39ec:	01412a83          	lw	s5,20(sp)
    39f0:	01012b03          	lw	s6,16(sp)
    39f4:	00c12b83          	lw	s7,12(sp)
    39f8:	00412c83          	lw	s9,4(sp)
    39fc:	98dff06f          	j	3388 <_malloc_r+0x8c>
    3a00:	05400693          	li	a3,84
    3a04:	04e6e463          	bltu	a3,a4,3a4c <_malloc_r+0x750>
    3a08:	00c7d713          	srl	a4,a5,0xc
    3a0c:	06f70613          	add	a2,a4,111
    3a10:	06e70693          	add	a3,a4,110
    3a14:	00361613          	sll	a2,a2,0x3
    3a18:	ccdff06f          	j	36e4 <_malloc_r+0x3e8>
    3a1c:	15400713          	li	a4,340
    3a20:	04f76463          	bltu	a4,a5,3a68 <_malloc_r+0x76c>
    3a24:	00f4d793          	srl	a5,s1,0xf
    3a28:	07878593          	add	a1,a5,120
    3a2c:	07778813          	add	a6,a5,119
    3a30:	00359613          	sll	a2,a1,0x3
    3a34:	9a9ff06f          	j	33dc <_malloc_r+0xe0>
    3a38:	0089a403          	lw	s0,8(s3)
    3a3c:	00442783          	lw	a5,4(s0)
    3a40:	bfdff06f          	j	363c <_malloc_r+0x340>
    3a44:	017ca023          	sw	s7,0(s9)
    3a48:	e81ff06f          	j	38c8 <_malloc_r+0x5cc>
    3a4c:	15400693          	li	a3,340
    3a50:	04e6e463          	bltu	a3,a4,3a98 <_malloc_r+0x79c>
    3a54:	00f7d713          	srl	a4,a5,0xf
    3a58:	07870613          	add	a2,a4,120
    3a5c:	07770693          	add	a3,a4,119
    3a60:	00361613          	sll	a2,a2,0x3
    3a64:	c81ff06f          	j	36e4 <_malloc_r+0x3e8>
    3a68:	55400713          	li	a4,1364
    3a6c:	04f76463          	bltu	a4,a5,3ab4 <_malloc_r+0x7b8>
    3a70:	0124d793          	srl	a5,s1,0x12
    3a74:	07d78593          	add	a1,a5,125
    3a78:	07c78813          	add	a6,a5,124
    3a7c:	00359613          	sll	a2,a1,0x3
    3a80:	95dff06f          	j	33dc <_malloc_r+0xe0>
    3a84:	ff8c8c93          	add	s9,s9,-8
    3a88:	019a8ab3          	add	s5,s5,s9
    3a8c:	417a8ab3          	sub	s5,s5,s7
    3a90:	00000a13          	li	s4,0
    3a94:	e7dff06f          	j	3910 <_malloc_r+0x614>
    3a98:	55400693          	li	a3,1364
    3a9c:	02e6e463          	bltu	a3,a4,3ac4 <_malloc_r+0x7c8>
    3aa0:	0127d713          	srl	a4,a5,0x12
    3aa4:	07d70613          	add	a2,a4,125
    3aa8:	07c70693          	add	a3,a4,124
    3aac:	00361613          	sll	a2,a2,0x3
    3ab0:	c35ff06f          	j	36e4 <_malloc_r+0x3e8>
    3ab4:	3f800613          	li	a2,1016
    3ab8:	07f00593          	li	a1,127
    3abc:	07e00813          	li	a6,126
    3ac0:	91dff06f          	j	33dc <_malloc_r+0xe0>
    3ac4:	3f800613          	li	a2,1016
    3ac8:	07e00693          	li	a3,126
    3acc:	c19ff06f          	j	36e4 <_malloc_r+0x3e8>
    3ad0:	0049a783          	lw	a5,4(s3)
    3ad4:	d9dff06f          	j	3870 <_malloc_r+0x574>

00003ad8 <__call_exitprocs>:
    3ad8:	fd010113          	add	sp,sp,-48
    3adc:	01712623          	sw	s7,12(sp)
    3ae0:	82c18b93          	add	s7,gp,-2004 # 18284 <__atexit_recursive_mutex>
    3ae4:	01612823          	sw	s6,16(sp)
    3ae8:	00050b13          	mv	s6,a0
    3aec:	000ba503          	lw	a0,0(s7)
    3af0:	01412c23          	sw	s4,24(sp)
    3af4:	00016a17          	auipc	s4,0x16
    3af8:	0bca0a13          	add	s4,s4,188 # 19bb0 <__atexit>
    3afc:	03212023          	sw	s2,32(sp)
    3b00:	01812423          	sw	s8,8(sp)
    3b04:	02112623          	sw	ra,44(sp)
    3b08:	00058c13          	mv	s8,a1
    3b0c:	500000ef          	jal	400c <__retarget_lock_acquire_recursive>
    3b10:	000a2903          	lw	s2,0(s4)
    3b14:	08090c63          	beqz	s2,3bac <__call_exitprocs+0xd4>
    3b18:	01312e23          	sw	s3,28(sp)
    3b1c:	01512a23          	sw	s5,20(sp)
    3b20:	02812423          	sw	s0,40(sp)
    3b24:	02912223          	sw	s1,36(sp)
    3b28:	01912223          	sw	s9,4(sp)
    3b2c:	fff00993          	li	s3,-1
    3b30:	00100a93          	li	s5,1
    3b34:	00492483          	lw	s1,4(s2)
    3b38:	fff48413          	add	s0,s1,-1
    3b3c:	04044e63          	bltz	s0,3b98 <__call_exitprocs+0xc0>
    3b40:	00249493          	sll	s1,s1,0x2
    3b44:	009904b3          	add	s1,s2,s1
    3b48:	080c1463          	bnez	s8,3bd0 <__call_exitprocs+0xf8>
    3b4c:	00492783          	lw	a5,4(s2)
    3b50:	0044a683          	lw	a3,4(s1)
    3b54:	fff78793          	add	a5,a5,-1
    3b58:	0c878063          	beq	a5,s0,3c18 <__call_exitprocs+0x140>
    3b5c:	0004a223          	sw	zero,4(s1)
    3b60:	02068663          	beqz	a3,3b8c <__call_exitprocs+0xb4>
    3b64:	18892783          	lw	a5,392(s2)
    3b68:	008a9733          	sll	a4,s5,s0
    3b6c:	00492c83          	lw	s9,4(s2)
    3b70:	00f777b3          	and	a5,a4,a5
    3b74:	06079a63          	bnez	a5,3be8 <__call_exitprocs+0x110>
    3b78:	000680e7          	jalr	a3
    3b7c:	00492703          	lw	a4,4(s2)
    3b80:	000a2783          	lw	a5,0(s4)
    3b84:	09971463          	bne	a4,s9,3c0c <__call_exitprocs+0x134>
    3b88:	09279263          	bne	a5,s2,3c0c <__call_exitprocs+0x134>
    3b8c:	fff40413          	add	s0,s0,-1
    3b90:	ffc48493          	add	s1,s1,-4
    3b94:	fb341ae3          	bne	s0,s3,3b48 <__call_exitprocs+0x70>
    3b98:	02812403          	lw	s0,40(sp)
    3b9c:	02412483          	lw	s1,36(sp)
    3ba0:	01c12983          	lw	s3,28(sp)
    3ba4:	01412a83          	lw	s5,20(sp)
    3ba8:	00412c83          	lw	s9,4(sp)
    3bac:	000ba503          	lw	a0,0(s7)
    3bb0:	02c12083          	lw	ra,44(sp)
    3bb4:	02012903          	lw	s2,32(sp)
    3bb8:	01812a03          	lw	s4,24(sp)
    3bbc:	01012b03          	lw	s6,16(sp)
    3bc0:	00c12b83          	lw	s7,12(sp)
    3bc4:	00812c03          	lw	s8,8(sp)
    3bc8:	03010113          	add	sp,sp,48
    3bcc:	4580006f          	j	4024 <__retarget_lock_release_recursive>
    3bd0:	1044a783          	lw	a5,260(s1)
    3bd4:	f7878ce3          	beq	a5,s8,3b4c <__call_exitprocs+0x74>
    3bd8:	fff40413          	add	s0,s0,-1
    3bdc:	ffc48493          	add	s1,s1,-4
    3be0:	ff3418e3          	bne	s0,s3,3bd0 <__call_exitprocs+0xf8>
    3be4:	fb5ff06f          	j	3b98 <__call_exitprocs+0xc0>
    3be8:	18c92783          	lw	a5,396(s2)
    3bec:	0844a583          	lw	a1,132(s1)
    3bf0:	00f77733          	and	a4,a4,a5
    3bf4:	02071663          	bnez	a4,3c20 <__call_exitprocs+0x148>
    3bf8:	000b0513          	mv	a0,s6
    3bfc:	000680e7          	jalr	a3
    3c00:	00492703          	lw	a4,4(s2)
    3c04:	000a2783          	lw	a5,0(s4)
    3c08:	f99700e3          	beq	a4,s9,3b88 <__call_exitprocs+0xb0>
    3c0c:	f80786e3          	beqz	a5,3b98 <__call_exitprocs+0xc0>
    3c10:	00078913          	mv	s2,a5
    3c14:	f21ff06f          	j	3b34 <__call_exitprocs+0x5c>
    3c18:	00892223          	sw	s0,4(s2)
    3c1c:	f45ff06f          	j	3b60 <__call_exitprocs+0x88>
    3c20:	00058513          	mv	a0,a1
    3c24:	000680e7          	jalr	a3
    3c28:	f55ff06f          	j	3b7c <__call_exitprocs+0xa4>

00003c2c <register_fini>:
    3c2c:	00000793          	li	a5,0
    3c30:	00078863          	beqz	a5,3c40 <register_fini+0x14>
    3c34:	00000517          	auipc	a0,0x0
    3c38:	36850513          	add	a0,a0,872 # 3f9c <__libc_fini_array>
    3c3c:	34c0006f          	j	3f88 <atexit>
    3c40:	00008067          	ret

00003c44 <_sbrk_r>:
    3c44:	ff010113          	add	sp,sp,-16
    3c48:	00812423          	sw	s0,8(sp)
    3c4c:	00050413          	mv	s0,a0
    3c50:	00058513          	mv	a0,a1
    3c54:	00016797          	auipc	a5,0x16
    3c58:	f407a223          	sw	zero,-188(a5) # 19b98 <errno>
    3c5c:	00112623          	sw	ra,12(sp)
    3c60:	325110ef          	jal	15784 <_sbrk>
    3c64:	fff00793          	li	a5,-1
    3c68:	00f50a63          	beq	a0,a5,3c7c <_sbrk_r+0x38>
    3c6c:	00c12083          	lw	ra,12(sp)
    3c70:	00812403          	lw	s0,8(sp)
    3c74:	01010113          	add	sp,sp,16
    3c78:	00008067          	ret
    3c7c:	00016797          	auipc	a5,0x16
    3c80:	f1c7a783          	lw	a5,-228(a5) # 19b98 <errno>
    3c84:	fe0784e3          	beqz	a5,3c6c <_sbrk_r+0x28>
    3c88:	00c12083          	lw	ra,12(sp)
    3c8c:	00f42023          	sw	a5,0(s0)
    3c90:	00812403          	lw	s0,8(sp)
    3c94:	01010113          	add	sp,sp,16
    3c98:	00008067          	ret

00003c9c <_write_r>:
    3c9c:	ff010113          	add	sp,sp,-16
    3ca0:	00058713          	mv	a4,a1
    3ca4:	00812423          	sw	s0,8(sp)
    3ca8:	00060593          	mv	a1,a2
    3cac:	00050413          	mv	s0,a0
    3cb0:	00068613          	mv	a2,a3
    3cb4:	00070513          	mv	a0,a4
    3cb8:	00016797          	auipc	a5,0x16
    3cbc:	ee07a023          	sw	zero,-288(a5) # 19b98 <errno>
    3cc0:	00112623          	sw	ra,12(sp)
    3cc4:	3b9110ef          	jal	1587c <_write>
    3cc8:	fff00793          	li	a5,-1
    3ccc:	00f50a63          	beq	a0,a5,3ce0 <_write_r+0x44>
    3cd0:	00c12083          	lw	ra,12(sp)
    3cd4:	00812403          	lw	s0,8(sp)
    3cd8:	01010113          	add	sp,sp,16
    3cdc:	00008067          	ret
    3ce0:	00016797          	auipc	a5,0x16
    3ce4:	eb87a783          	lw	a5,-328(a5) # 19b98 <errno>
    3ce8:	fe0784e3          	beqz	a5,3cd0 <_write_r+0x34>
    3cec:	00c12083          	lw	ra,12(sp)
    3cf0:	00f42023          	sw	a5,0(s0)
    3cf4:	00812403          	lw	s0,8(sp)
    3cf8:	01010113          	add	sp,sp,16
    3cfc:	00008067          	ret

00003d00 <__smakebuf_r>:
    3d00:	00c59783          	lh	a5,12(a1)
    3d04:	f8010113          	add	sp,sp,-128
    3d08:	06812c23          	sw	s0,120(sp)
    3d0c:	06112e23          	sw	ra,124(sp)
    3d10:	0027f713          	and	a4,a5,2
    3d14:	00058413          	mv	s0,a1
    3d18:	02070463          	beqz	a4,3d40 <__smakebuf_r+0x40>
    3d1c:	04358793          	add	a5,a1,67
    3d20:	00f5a023          	sw	a5,0(a1)
    3d24:	00f5a823          	sw	a5,16(a1)
    3d28:	00100793          	li	a5,1
    3d2c:	00f5aa23          	sw	a5,20(a1)
    3d30:	07c12083          	lw	ra,124(sp)
    3d34:	07812403          	lw	s0,120(sp)
    3d38:	08010113          	add	sp,sp,128
    3d3c:	00008067          	ret
    3d40:	00e59583          	lh	a1,14(a1)
    3d44:	06912a23          	sw	s1,116(sp)
    3d48:	07212823          	sw	s2,112(sp)
    3d4c:	07312623          	sw	s3,108(sp)
    3d50:	07412423          	sw	s4,104(sp)
    3d54:	00050493          	mv	s1,a0
    3d58:	0805c663          	bltz	a1,3de4 <__smakebuf_r+0xe4>
    3d5c:	00810613          	add	a2,sp,8
    3d60:	1c4010ef          	jal	4f24 <_fstat_r>
    3d64:	06054e63          	bltz	a0,3de0 <__smakebuf_r+0xe0>
    3d68:	00c12783          	lw	a5,12(sp)
    3d6c:	0000f937          	lui	s2,0xf
    3d70:	000019b7          	lui	s3,0x1
    3d74:	00f97933          	and	s2,s2,a5
    3d78:	ffffe7b7          	lui	a5,0xffffe
    3d7c:	00f90933          	add	s2,s2,a5
    3d80:	00193913          	seqz	s2,s2
    3d84:	40000a13          	li	s4,1024
    3d88:	80098993          	add	s3,s3,-2048 # 800 <decrypt+0xc>
    3d8c:	000a0593          	mv	a1,s4
    3d90:	00048513          	mv	a0,s1
    3d94:	d68ff0ef          	jal	32fc <_malloc_r>
    3d98:	00c41783          	lh	a5,12(s0)
    3d9c:	06050863          	beqz	a0,3e0c <__smakebuf_r+0x10c>
    3da0:	0807e793          	or	a5,a5,128
    3da4:	00a42023          	sw	a0,0(s0)
    3da8:	00a42823          	sw	a0,16(s0)
    3dac:	00f41623          	sh	a5,12(s0)
    3db0:	01442a23          	sw	s4,20(s0)
    3db4:	0a091063          	bnez	s2,3e54 <__smakebuf_r+0x154>
    3db8:	0137e7b3          	or	a5,a5,s3
    3dbc:	07c12083          	lw	ra,124(sp)
    3dc0:	00f41623          	sh	a5,12(s0)
    3dc4:	07812403          	lw	s0,120(sp)
    3dc8:	07412483          	lw	s1,116(sp)
    3dcc:	07012903          	lw	s2,112(sp)
    3dd0:	06c12983          	lw	s3,108(sp)
    3dd4:	06812a03          	lw	s4,104(sp)
    3dd8:	08010113          	add	sp,sp,128
    3ddc:	00008067          	ret
    3de0:	00c41783          	lh	a5,12(s0)
    3de4:	0807f793          	and	a5,a5,128
    3de8:	00000913          	li	s2,0
    3dec:	04078e63          	beqz	a5,3e48 <__smakebuf_r+0x148>
    3df0:	04000a13          	li	s4,64
    3df4:	000a0593          	mv	a1,s4
    3df8:	00048513          	mv	a0,s1
    3dfc:	d00ff0ef          	jal	32fc <_malloc_r>
    3e00:	00c41783          	lh	a5,12(s0)
    3e04:	00000993          	li	s3,0
    3e08:	f8051ce3          	bnez	a0,3da0 <__smakebuf_r+0xa0>
    3e0c:	2007f713          	and	a4,a5,512
    3e10:	04071e63          	bnez	a4,3e6c <__smakebuf_r+0x16c>
    3e14:	ffc7f793          	and	a5,a5,-4
    3e18:	0027e793          	or	a5,a5,2
    3e1c:	04340713          	add	a4,s0,67
    3e20:	00f41623          	sh	a5,12(s0)
    3e24:	00100793          	li	a5,1
    3e28:	07412483          	lw	s1,116(sp)
    3e2c:	07012903          	lw	s2,112(sp)
    3e30:	06c12983          	lw	s3,108(sp)
    3e34:	06812a03          	lw	s4,104(sp)
    3e38:	00e42023          	sw	a4,0(s0)
    3e3c:	00e42823          	sw	a4,16(s0)
    3e40:	00f42a23          	sw	a5,20(s0)
    3e44:	eedff06f          	j	3d30 <__smakebuf_r+0x30>
    3e48:	40000a13          	li	s4,1024
    3e4c:	00000993          	li	s3,0
    3e50:	f3dff06f          	j	3d8c <__smakebuf_r+0x8c>
    3e54:	00e41583          	lh	a1,14(s0)
    3e58:	00048513          	mv	a0,s1
    3e5c:	668010ef          	jal	54c4 <_isatty_r>
    3e60:	02051063          	bnez	a0,3e80 <__smakebuf_r+0x180>
    3e64:	00c41783          	lh	a5,12(s0)
    3e68:	f51ff06f          	j	3db8 <__smakebuf_r+0xb8>
